
md5.o:     file format elf32-littleriscv


Disassembly of section .text.wpa_MD5Transform:

00000000 <wpa_MD5Transform>:
   0:	7179                	addi	sp,sp,-48
   2:	c466                	sw	s9,8(sp)
   4:	c26a                	sw	s10,4(sp)
   6:	c06e                	sw	s11,0(sp)
   8:	d622                	sw	s0,44(sp)
   a:	d426                	sw	s1,40(sp)
   c:	d24a                	sw	s2,36(sp)
   e:	d04e                	sw	s3,32(sp)
  10:	ce52                	sw	s4,28(sp)
  12:	cc56                	sw	s5,24(sp)
  14:	ca5a                	sw	s6,20(sp)
  16:	c85e                	sw	s7,16(sp)
  18:	c662                	sw	s8,12(sp)
  1a:	88aa                	mv	a7,a0

0000001c <.LVL1>:
  1c:	0005ac03          	lw	s8,0(a1)
  20:	0088ac83          	lw	s9,8(a7)
  24:	00c8ad03          	lw	s10,12(a7)
  28:	0008a703          	lw	a4,0(a7)
  2c:	d76aa7b7          	lui	a5,0xd76aa
  30:	0048a803          	lw	a6,4(a7)

00000034 <.LVL2>:
  34:	47878793          	addi	a5,a5,1144 # d76aa478 <.LLST12+0xd76a99e1>
  38:	97e2                	add	a5,a5,s8
  3a:	973e                	add	a4,a4,a5
  3c:	01acc7b3          	xor	a5,s9,s10
  40:	0107f7b3          	and	a5,a5,a6
  44:	41c4                	lw	s1,4(a1)
  46:	01a7c7b3          	xor	a5,a5,s10
  4a:	97ba                	add	a5,a5,a4

0000004c <.LVL3>:
  4c:	e8c7b6b7          	lui	a3,0xe8c7b
  50:	00779713          	slli	a4,a5,0x7
  54:	75668693          	addi	a3,a3,1878 # e8c7b756 <.LLST12+0xe8c7acbf>
  58:	83e5                	srli	a5,a5,0x19

0000005a <.LVL4>:
  5a:	96a6                	add	a3,a3,s1
  5c:	8fd9                	or	a5,a5,a4

0000005e <.LVL5>:
  5e:	97c2                	add	a5,a5,a6
  60:	01a68733          	add	a4,a3,s10
  64:	019846b3          	xor	a3,a6,s9
  68:	8efd                	and	a3,a3,a5
  6a:	0085ae03          	lw	t3,8(a1)
  6e:	0196c6b3          	xor	a3,a3,s9
  72:	96ba                	add	a3,a3,a4

00000074 <.LVL7>:
  74:	24207637          	lui	a2,0x24207
  78:	00c69713          	slli	a4,a3,0xc
  7c:	0db60613          	addi	a2,a2,219 # 242070db <.LLST12+0x24206644>
  80:	82d1                	srli	a3,a3,0x14

00000082 <.LVL8>:
  82:	8ed9                	or	a3,a3,a4

00000084 <.LVL9>:
  84:	9672                	add	a2,a2,t3
  86:	96be                	add	a3,a3,a5
  88:	01960733          	add	a4,a2,s9
  8c:	00f84633          	xor	a2,a6,a5
  90:	8e75                	and	a2,a2,a3
  92:	01064633          	xor	a2,a2,a6
  96:	963a                	add	a2,a2,a4

00000098 <.LVL11>:
  98:	00c5a983          	lw	s3,12(a1)
  9c:	00f65713          	srli	a4,a2,0xf
  a0:	0646                	slli	a2,a2,0x11

000000a2 <.LVL12>:
  a2:	8e59                	or	a2,a2,a4

000000a4 <.LVL13>:
  a4:	c1bdd737          	lui	a4,0xc1bdd
  a8:	eee70713          	addi	a4,a4,-274 # c1bdceee <.LLST12+0xc1bdc457>
  ac:	974e                	add	a4,a4,s3
  ae:	852e                	mv	a0,a1

000000b0 <.LVL14>:
  b0:	9636                	add	a2,a2,a3
  b2:	010705b3          	add	a1,a4,a6

000000b6 <.LVL16>:
  b6:	00d7c733          	xor	a4,a5,a3
  ba:	8f71                	and	a4,a4,a2
  bc:	8f3d                	xor	a4,a4,a5
  be:	972e                	add	a4,a4,a1

000000c0 <.LVL17>:
  c0:	01052f03          	lw	t5,16(a0)
  c4:	00a75593          	srli	a1,a4,0xa
  c8:	075a                	slli	a4,a4,0x16

000000ca <.LVL18>:
  ca:	8f4d                	or	a4,a4,a1

000000cc <.LVL19>:
  cc:	f57c15b7          	lui	a1,0xf57c1
  d0:	faf58593          	addi	a1,a1,-81 # f57c0faf <.LLST12+0xf57c0518>
  d4:	95fa                	add	a1,a1,t5
  d6:	9732                	add	a4,a4,a2
  d8:	95be                	add	a1,a1,a5
  da:	00c6c7b3          	xor	a5,a3,a2

000000de <.LVL21>:
  de:	8ff9                	and	a5,a5,a4
  e0:	8fb5                	xor	a5,a5,a3
  e2:	97ae                	add	a5,a5,a1

000000e4 <.LVL22>:
  e4:	01452a83          	lw	s5,20(a0)
  e8:	00779593          	slli	a1,a5,0x7
  ec:	83e5                	srli	a5,a5,0x19

000000ee <.LVL23>:
  ee:	8fcd                	or	a5,a5,a1

000000f0 <.LVL24>:
  f0:	4787c5b7          	lui	a1,0x4787c
  f4:	62a58593          	addi	a1,a1,1578 # 4787c62a <.LLST12+0x4787bb93>
  f8:	95d6                	add	a1,a1,s5
  fa:	97ba                	add	a5,a5,a4
  fc:	95b6                	add	a1,a1,a3
  fe:	00e646b3          	xor	a3,a2,a4

00000102 <.LVL26>:
 102:	8efd                	and	a3,a3,a5
 104:	8eb1                	xor	a3,a3,a2
 106:	96ae                	add	a3,a3,a1

00000108 <.LVL27>:
 108:	01852283          	lw	t0,24(a0)
 10c:	00c69593          	slli	a1,a3,0xc
 110:	82d1                	srli	a3,a3,0x14

00000112 <.LVL28>:
 112:	8ecd                	or	a3,a3,a1

00000114 <.LVL29>:
 114:	a83045b7          	lui	a1,0xa8304
 118:	61358593          	addi	a1,a1,1555 # a8304613 <.LLST12+0xa8303b7c>
 11c:	9596                	add	a1,a1,t0
 11e:	96be                	add	a3,a3,a5
 120:	95b2                	add	a1,a1,a2
 122:	00f74633          	xor	a2,a4,a5

00000126 <.LVL31>:
 126:	8e75                	and	a2,a2,a3
 128:	8e39                	xor	a2,a2,a4
 12a:	962e                	add	a2,a2,a1

0000012c <.LVL32>:
 12c:	01c52b83          	lw	s7,28(a0)
 130:	00f65593          	srli	a1,a2,0xf
 134:	0646                	slli	a2,a2,0x11

00000136 <.LVL33>:
 136:	8e4d                	or	a2,a2,a1

00000138 <.LVL34>:
 138:	fd4695b7          	lui	a1,0xfd469
 13c:	50158593          	addi	a1,a1,1281 # fd469501 <.LLST12+0xfd468a6a>
 140:	95de                	add	a1,a1,s7
 142:	9636                	add	a2,a2,a3
 144:	95ba                	add	a1,a1,a4
 146:	00d7c733          	xor	a4,a5,a3

0000014a <.LVL36>:
 14a:	8f71                	and	a4,a4,a2
 14c:	8f3d                	xor	a4,a4,a5
 14e:	972e                	add	a4,a4,a1

00000150 <.LVL37>:
 150:	5100                	lw	s0,32(a0)
 152:	00a75593          	srli	a1,a4,0xa
 156:	075a                	slli	a4,a4,0x16

00000158 <.LVL38>:
 158:	8f4d                	or	a4,a4,a1

0000015a <.LVL39>:
 15a:	6980a5b7          	lui	a1,0x6980a
 15e:	8d858593          	addi	a1,a1,-1832 # 698098d8 <.LLST12+0x69808e41>
 162:	95a2                	add	a1,a1,s0
 164:	9732                	add	a4,a4,a2
 166:	95be                	add	a1,a1,a5
 168:	00c6c7b3          	xor	a5,a3,a2

0000016c <.LVL41>:
 16c:	8ff9                	and	a5,a5,a4
 16e:	8fb5                	xor	a5,a5,a3
 170:	97ae                	add	a5,a5,a1

00000172 <.LVL42>:
 172:	02452303          	lw	t1,36(a0)
 176:	00779593          	slli	a1,a5,0x7
 17a:	83e5                	srli	a5,a5,0x19

0000017c <.LVL43>:
 17c:	8fcd                	or	a5,a5,a1

0000017e <.LVL44>:
 17e:	8b44f5b7          	lui	a1,0x8b44f
 182:	7af58593          	addi	a1,a1,1967 # 8b44f7af <.LLST12+0x8b44ed18>
 186:	959a                	add	a1,a1,t1
 188:	97ba                	add	a5,a5,a4
 18a:	95b6                	add	a1,a1,a3
 18c:	00e646b3          	xor	a3,a2,a4

00000190 <.LVL46>:
 190:	8efd                	and	a3,a3,a5
 192:	8eb1                	xor	a3,a3,a2
 194:	96ae                	add	a3,a3,a1

00000196 <.LVL47>:
 196:	02852903          	lw	s2,40(a0)
 19a:	00c69593          	slli	a1,a3,0xc
 19e:	82d1                	srli	a3,a3,0x14

000001a0 <.LVL48>:
 1a0:	8ecd                	or	a3,a3,a1

000001a2 <.LVL49>:
 1a2:	75d9                	lui	a1,0xffff6
 1a4:	bb158593          	addi	a1,a1,-1103 # ffff5bb1 <.LLST12+0xffff511a>
 1a8:	95ca                	add	a1,a1,s2
 1aa:	96be                	add	a3,a3,a5
 1ac:	95b2                	add	a1,a1,a2
 1ae:	00f74633          	xor	a2,a4,a5

000001b2 <.LVL51>:
 1b2:	8e75                	and	a2,a2,a3
 1b4:	8e39                	xor	a2,a2,a4
 1b6:	962e                	add	a2,a2,a1

000001b8 <.LVL52>:
 1b8:	02c52e83          	lw	t4,44(a0)
 1bc:	00f65593          	srli	a1,a2,0xf
 1c0:	0646                	slli	a2,a2,0x11

000001c2 <.LVL53>:
 1c2:	8e4d                	or	a2,a2,a1

000001c4 <.LVL54>:
 1c4:	895cd5b7          	lui	a1,0x895cd
 1c8:	7be58593          	addi	a1,a1,1982 # 895cd7be <.LLST12+0x895ccd27>
 1cc:	95f6                	add	a1,a1,t4
 1ce:	9636                	add	a2,a2,a3
 1d0:	95ba                	add	a1,a1,a4
 1d2:	00d7c733          	xor	a4,a5,a3

000001d6 <.LVL56>:
 1d6:	8f71                	and	a4,a4,a2
 1d8:	8f3d                	xor	a4,a4,a5
 1da:	972e                	add	a4,a4,a1

000001dc <.LVL57>:
 1dc:	03052a03          	lw	s4,48(a0)
 1e0:	00a75593          	srli	a1,a4,0xa
 1e4:	075a                	slli	a4,a4,0x16

000001e6 <.LVL58>:
 1e6:	8f4d                	or	a4,a4,a1

000001e8 <.LVL59>:
 1e8:	6b9015b7          	lui	a1,0x6b901
 1ec:	12258593          	addi	a1,a1,290 # 6b901122 <.LLST12+0x6b90068b>
 1f0:	95d2                	add	a1,a1,s4
 1f2:	9732                	add	a4,a4,a2
 1f4:	95be                	add	a1,a1,a5
 1f6:	00c6c7b3          	xor	a5,a3,a2

000001fa <.LVL61>:
 1fa:	8ff9                	and	a5,a5,a4
 1fc:	8fb5                	xor	a5,a5,a3
 1fe:	97ae                	add	a5,a5,a1

00000200 <.LVL62>:
 200:	03452f83          	lw	t6,52(a0)
 204:	00779593          	slli	a1,a5,0x7
 208:	83e5                	srli	a5,a5,0x19

0000020a <.LVL63>:
 20a:	8fcd                	or	a5,a5,a1

0000020c <.LVL64>:
 20c:	fd9875b7          	lui	a1,0xfd987
 210:	19358593          	addi	a1,a1,403 # fd987193 <.LLST12+0xfd9866fc>
 214:	95fe                	add	a1,a1,t6
 216:	97ba                	add	a5,a5,a4
 218:	95b6                	add	a1,a1,a3
 21a:	00e646b3          	xor	a3,a2,a4

0000021e <.LVL66>:
 21e:	8efd                	and	a3,a3,a5
 220:	8eb1                	xor	a3,a3,a2
 222:	96ae                	add	a3,a3,a1

00000224 <.LVL67>:
 224:	03852b03          	lw	s6,56(a0)
 228:	00c69593          	slli	a1,a3,0xc
 22c:	82d1                	srli	a3,a3,0x14

0000022e <.LVL68>:
 22e:	8ecd                	or	a3,a3,a1

00000230 <.LVL69>:
 230:	a67945b7          	lui	a1,0xa6794
 234:	38e58593          	addi	a1,a1,910 # a679438e <.LLST12+0xa67938f7>
 238:	95da                	add	a1,a1,s6
 23a:	96be                	add	a3,a3,a5
 23c:	95b2                	add	a1,a1,a2
 23e:	00f74633          	xor	a2,a4,a5

00000242 <.LVL71>:
 242:	8e75                	and	a2,a2,a3
 244:	8e39                	xor	a2,a2,a4
 246:	962e                	add	a2,a2,a1

00000248 <.LVL72>:
 248:	03c52383          	lw	t2,60(a0)
 24c:	00f65593          	srli	a1,a2,0xf
 250:	0646                	slli	a2,a2,0x11

00000252 <.LVL73>:
 252:	8e4d                	or	a2,a2,a1

00000254 <.LVL74>:
 254:	49b415b7          	lui	a1,0x49b41
 258:	82158593          	addi	a1,a1,-2015 # 49b40821 <.LLST12+0x49b3fd8a>
 25c:	959e                	add	a1,a1,t2
 25e:	9636                	add	a2,a2,a3
 260:	95ba                	add	a1,a1,a4
 262:	00d7c733          	xor	a4,a5,a3

00000266 <.LVL76>:
 266:	8f71                	and	a4,a4,a2
 268:	8f3d                	xor	a4,a4,a5
 26a:	972e                	add	a4,a4,a1

0000026c <.LVL77>:
 26c:	00a75593          	srli	a1,a4,0xa
 270:	075a                	slli	a4,a4,0x16

00000272 <.LVL78>:
 272:	8f4d                	or	a4,a4,a1

00000274 <.LVL79>:
 274:	f61e25b7          	lui	a1,0xf61e2
 278:	56258593          	addi	a1,a1,1378 # f61e2562 <.LLST12+0xf61e1acb>
 27c:	9732                	add	a4,a4,a2
 27e:	95a6                	add	a1,a1,s1
 280:	95be                	add	a1,a1,a5
 282:	00e647b3          	xor	a5,a2,a4

00000286 <.LVL81>:
 286:	8ff5                	and	a5,a5,a3
 288:	8fb1                	xor	a5,a5,a2
 28a:	97ae                	add	a5,a5,a1

0000028c <.LVL82>:
 28c:	00579593          	slli	a1,a5,0x5
 290:	83ed                	srli	a5,a5,0x1b

00000292 <.LVL83>:
 292:	8fcd                	or	a5,a5,a1

00000294 <.LVL84>:
 294:	c040b5b7          	lui	a1,0xc040b
 298:	34058593          	addi	a1,a1,832 # c040b340 <.LLST12+0xc040a8a9>
 29c:	97ba                	add	a5,a5,a4
 29e:	9596                	add	a1,a1,t0
 2a0:	95b6                	add	a1,a1,a3
 2a2:	00f746b3          	xor	a3,a4,a5

000002a6 <.LVL86>:
 2a6:	8ef1                	and	a3,a3,a2
 2a8:	8eb9                	xor	a3,a3,a4
 2aa:	96ae                	add	a3,a3,a1

000002ac <.LVL87>:
 2ac:	00969593          	slli	a1,a3,0x9
 2b0:	82dd                	srli	a3,a3,0x17

000002b2 <.LVL88>:
 2b2:	8ecd                	or	a3,a3,a1

000002b4 <.LVL89>:
 2b4:	265e65b7          	lui	a1,0x265e6
 2b8:	a5158593          	addi	a1,a1,-1455 # 265e5a51 <.LLST12+0x265e4fba>
 2bc:	96be                	add	a3,a3,a5
 2be:	95f6                	add	a1,a1,t4
 2c0:	95b2                	add	a1,a1,a2
 2c2:	00d7c633          	xor	a2,a5,a3

000002c6 <.LVL91>:
 2c6:	8e79                	and	a2,a2,a4
 2c8:	8e3d                	xor	a2,a2,a5
 2ca:	962e                	add	a2,a2,a1

000002cc <.LVL92>:
 2cc:	00e61593          	slli	a1,a2,0xe
 2d0:	8249                	srli	a2,a2,0x12

000002d2 <.LVL93>:
 2d2:	8e4d                	or	a2,a2,a1

000002d4 <.LVL94>:
 2d4:	e9b6c5b7          	lui	a1,0xe9b6c
 2d8:	7aa58593          	addi	a1,a1,1962 # e9b6c7aa <.LLST12+0xe9b6bd13>
 2dc:	9636                	add	a2,a2,a3
 2de:	95e2                	add	a1,a1,s8
 2e0:	95ba                	add	a1,a1,a4
 2e2:	00c6c733          	xor	a4,a3,a2

000002e6 <.LVL96>:
 2e6:	8f7d                	and	a4,a4,a5
 2e8:	8f35                	xor	a4,a4,a3
 2ea:	972e                	add	a4,a4,a1

000002ec <.LVL97>:
 2ec:	00c75593          	srli	a1,a4,0xc
 2f0:	0752                	slli	a4,a4,0x14

000002f2 <.LVL98>:
 2f2:	8f4d                	or	a4,a4,a1

000002f4 <.LVL99>:
 2f4:	d62f15b7          	lui	a1,0xd62f1
 2f8:	05d58593          	addi	a1,a1,93 # d62f105d <.LLST12+0xd62f05c6>
 2fc:	9732                	add	a4,a4,a2
 2fe:	95d6                	add	a1,a1,s5
 300:	95be                	add	a1,a1,a5
 302:	00e647b3          	xor	a5,a2,a4

00000306 <.LVL101>:
 306:	8ff5                	and	a5,a5,a3
 308:	8fb1                	xor	a5,a5,a2
 30a:	97ae                	add	a5,a5,a1

0000030c <.LVL102>:
 30c:	00579593          	slli	a1,a5,0x5
 310:	83ed                	srli	a5,a5,0x1b

00000312 <.LVL103>:
 312:	8fcd                	or	a5,a5,a1

00000314 <.LVL104>:
 314:	024415b7          	lui	a1,0x2441
 318:	45358593          	addi	a1,a1,1107 # 2441453 <.LLST12+0x24409bc>
 31c:	97ba                	add	a5,a5,a4
 31e:	95ca                	add	a1,a1,s2
 320:	95b6                	add	a1,a1,a3
 322:	00f746b3          	xor	a3,a4,a5

00000326 <.LVL106>:
 326:	8ef1                	and	a3,a3,a2
 328:	8eb9                	xor	a3,a3,a4
 32a:	96ae                	add	a3,a3,a1

0000032c <.LVL107>:
 32c:	00969593          	slli	a1,a3,0x9
 330:	82dd                	srli	a3,a3,0x17

00000332 <.LVL108>:
 332:	8ecd                	or	a3,a3,a1

00000334 <.LVL109>:
 334:	d8a1e5b7          	lui	a1,0xd8a1e
 338:	68158593          	addi	a1,a1,1665 # d8a1e681 <.LLST12+0xd8a1dbea>
 33c:	96be                	add	a3,a3,a5
 33e:	959e                	add	a1,a1,t2
 340:	95b2                	add	a1,a1,a2
 342:	00d7c633          	xor	a2,a5,a3

00000346 <.LVL111>:
 346:	8e79                	and	a2,a2,a4
 348:	8e3d                	xor	a2,a2,a5
 34a:	962e                	add	a2,a2,a1

0000034c <.LVL112>:
 34c:	00e61593          	slli	a1,a2,0xe
 350:	8249                	srli	a2,a2,0x12

00000352 <.LVL113>:
 352:	8e4d                	or	a2,a2,a1

00000354 <.LVL114>:
 354:	e7d405b7          	lui	a1,0xe7d40
 358:	bc858593          	addi	a1,a1,-1080 # e7d3fbc8 <.LLST12+0xe7d3f131>
 35c:	9636                	add	a2,a2,a3
 35e:	95fa                	add	a1,a1,t5
 360:	95ba                	add	a1,a1,a4
 362:	00c6c733          	xor	a4,a3,a2

00000366 <.LVL116>:
 366:	8f7d                	and	a4,a4,a5
 368:	8f35                	xor	a4,a4,a3
 36a:	972e                	add	a4,a4,a1

0000036c <.LVL117>:
 36c:	00c75593          	srli	a1,a4,0xc
 370:	0752                	slli	a4,a4,0x14

00000372 <.LVL118>:
 372:	8f4d                	or	a4,a4,a1

00000374 <.LVL119>:
 374:	21e1d5b7          	lui	a1,0x21e1d
 378:	de658593          	addi	a1,a1,-538 # 21e1cde6 <.LLST12+0x21e1c34f>
 37c:	9732                	add	a4,a4,a2
 37e:	959a                	add	a1,a1,t1
 380:	95be                	add	a1,a1,a5
 382:	00e647b3          	xor	a5,a2,a4

00000386 <.LVL121>:
 386:	8ff5                	and	a5,a5,a3
 388:	8fb1                	xor	a5,a5,a2
 38a:	97ae                	add	a5,a5,a1

0000038c <.LVL122>:
 38c:	00579593          	slli	a1,a5,0x5
 390:	83ed                	srli	a5,a5,0x1b

00000392 <.LVL123>:
 392:	8fcd                	or	a5,a5,a1

00000394 <.LVL124>:
 394:	c33705b7          	lui	a1,0xc3370
 398:	7d658593          	addi	a1,a1,2006 # c33707d6 <.LLST12+0xc336fd3f>
 39c:	97ba                	add	a5,a5,a4
 39e:	95da                	add	a1,a1,s6
 3a0:	95b6                	add	a1,a1,a3
 3a2:	00f746b3          	xor	a3,a4,a5

000003a6 <.LVL126>:
 3a6:	8ef1                	and	a3,a3,a2
 3a8:	8eb9                	xor	a3,a3,a4
 3aa:	96ae                	add	a3,a3,a1

000003ac <.LVL127>:
 3ac:	00969593          	slli	a1,a3,0x9
 3b0:	82dd                	srli	a3,a3,0x17

000003b2 <.LVL128>:
 3b2:	8ecd                	or	a3,a3,a1

000003b4 <.LVL129>:
 3b4:	f4d515b7          	lui	a1,0xf4d51
 3b8:	d8758593          	addi	a1,a1,-633 # f4d50d87 <.LLST12+0xf4d502f0>
 3bc:	96be                	add	a3,a3,a5
 3be:	95ce                	add	a1,a1,s3
 3c0:	95b2                	add	a1,a1,a2
 3c2:	00d7c633          	xor	a2,a5,a3

000003c6 <.LVL131>:
 3c6:	8e79                	and	a2,a2,a4
 3c8:	8e3d                	xor	a2,a2,a5
 3ca:	962e                	add	a2,a2,a1

000003cc <.LVL132>:
 3cc:	00e61593          	slli	a1,a2,0xe
 3d0:	8249                	srli	a2,a2,0x12

000003d2 <.LVL133>:
 3d2:	8e4d                	or	a2,a2,a1

000003d4 <.LVL134>:
 3d4:	455a15b7          	lui	a1,0x455a1
 3d8:	4ed58593          	addi	a1,a1,1261 # 455a14ed <.LLST12+0x455a0a56>
 3dc:	9636                	add	a2,a2,a3
 3de:	95a2                	add	a1,a1,s0
 3e0:	95ba                	add	a1,a1,a4
 3e2:	00c6c733          	xor	a4,a3,a2

000003e6 <.LVL136>:
 3e6:	8f7d                	and	a4,a4,a5
 3e8:	8f35                	xor	a4,a4,a3
 3ea:	972e                	add	a4,a4,a1

000003ec <.LVL137>:
 3ec:	00c75593          	srli	a1,a4,0xc
 3f0:	0752                	slli	a4,a4,0x14

000003f2 <.LVL138>:
 3f2:	8f4d                	or	a4,a4,a1

000003f4 <.LVL139>:
 3f4:	a9e3f5b7          	lui	a1,0xa9e3f
 3f8:	90558593          	addi	a1,a1,-1787 # a9e3e905 <.LLST12+0xa9e3de6e>
 3fc:	9732                	add	a4,a4,a2
 3fe:	95fe                	add	a1,a1,t6
 400:	95be                	add	a1,a1,a5
 402:	00e647b3          	xor	a5,a2,a4

00000406 <.LVL141>:
 406:	8ff5                	and	a5,a5,a3
 408:	8fb1                	xor	a5,a5,a2
 40a:	97ae                	add	a5,a5,a1

0000040c <.LVL142>:
 40c:	00579593          	slli	a1,a5,0x5
 410:	83ed                	srli	a5,a5,0x1b

00000412 <.LVL143>:
 412:	8fcd                	or	a5,a5,a1

00000414 <.LVL144>:
 414:	fcefa5b7          	lui	a1,0xfcefa
 418:	3f858593          	addi	a1,a1,1016 # fcefa3f8 <.LLST12+0xfcef9961>
 41c:	97ba                	add	a5,a5,a4
 41e:	95f2                	add	a1,a1,t3
 420:	95b6                	add	a1,a1,a3
 422:	00f746b3          	xor	a3,a4,a5

00000426 <.LVL146>:
 426:	8ef1                	and	a3,a3,a2
 428:	8eb9                	xor	a3,a3,a4
 42a:	96ae                	add	a3,a3,a1

0000042c <.LVL147>:
 42c:	00969593          	slli	a1,a3,0x9
 430:	82dd                	srli	a3,a3,0x17

00000432 <.LVL148>:
 432:	8ecd                	or	a3,a3,a1

00000434 <.LVL149>:
 434:	676f05b7          	lui	a1,0x676f0
 438:	2d958593          	addi	a1,a1,729 # 676f02d9 <.LLST12+0x676ef842>
 43c:	96be                	add	a3,a3,a5
 43e:	95de                	add	a1,a1,s7
 440:	962e                	add	a2,a2,a1

00000442 <.LVL151>:
 442:	00d7c5b3          	xor	a1,a5,a3
 446:	8df9                	and	a1,a1,a4
 448:	8dbd                	xor	a1,a1,a5
 44a:	95b2                	add	a1,a1,a2

0000044c <.LVL152>:
 44c:	00e59d93          	slli	s11,a1,0xe
 450:	81c9                	srli	a1,a1,0x12

00000452 <.LVL153>:
 452:	01b5e5b3          	or	a1,a1,s11

00000456 <.LVL154>:
 456:	8d2a5db7          	lui	s11,0x8d2a5
 45a:	95b6                	add	a1,a1,a3
 45c:	c8ad8d93          	addi	s11,s11,-886 # 8d2a4c8a <.LLST12+0x8d2a41f3>
 460:	00b6c633          	xor	a2,a3,a1
 464:	9dd2                	add	s11,s11,s4
 466:	9dba                	add	s11,s11,a4
 468:	00c7f733          	and	a4,a5,a2

0000046c <.LVL156>:
 46c:	8f35                	xor	a4,a4,a3
 46e:	976e                	add	a4,a4,s11

00000470 <.LVL157>:
 470:	00c75d93          	srli	s11,a4,0xc
 474:	0752                	slli	a4,a4,0x14

00000476 <.LVL158>:
 476:	01b76733          	or	a4,a4,s11

0000047a <.LVL159>:
 47a:	fffa4db7          	lui	s11,0xfffa4
 47e:	942d8d93          	addi	s11,s11,-1726 # fffa3942 <.LLST12+0xfffa2eab>
 482:	972e                	add	a4,a4,a1
 484:	9dd6                	add	s11,s11,s5
 486:	8e39                	xor	a2,a2,a4
 488:	97ee                	add	a5,a5,s11

0000048a <.LVL161>:
 48a:	97b2                	add	a5,a5,a2

0000048c <.LVL162>:
 48c:	8771f637          	lui	a2,0x8771f
 490:	00479d93          	slli	s11,a5,0x4
 494:	68160613          	addi	a2,a2,1665 # 8771f681 <.LLST12+0x8771ebea>
 498:	83f1                	srli	a5,a5,0x1c

0000049a <.LVL163>:
 49a:	01b7e7b3          	or	a5,a5,s11

0000049e <.LVL164>:
 49e:	9622                	add	a2,a2,s0
 4a0:	97ba                	add	a5,a5,a4
 4a2:	9636                	add	a2,a2,a3
 4a4:	00e5c6b3          	xor	a3,a1,a4

000004a8 <.LVL166>:
 4a8:	8ebd                	xor	a3,a3,a5
 4aa:	96b2                	add	a3,a3,a2

000004ac <.LVL167>:
 4ac:	00b69613          	slli	a2,a3,0xb
 4b0:	82d5                	srli	a3,a3,0x15

000004b2 <.LVL168>:
 4b2:	8ed1                	or	a3,a3,a2

000004b4 <.LVL169>:
 4b4:	6d9d6637          	lui	a2,0x6d9d6
 4b8:	12260613          	addi	a2,a2,290 # 6d9d6122 <.LLST12+0x6d9d568b>
 4bc:	9676                	add	a2,a2,t4
 4be:	96be                	add	a3,a3,a5
 4c0:	962e                	add	a2,a2,a1
 4c2:	00f745b3          	xor	a1,a4,a5

000004c6 <.LVL171>:
 4c6:	8db5                	xor	a1,a1,a3
 4c8:	95b2                	add	a1,a1,a2

000004ca <.LVL172>:
 4ca:	01059613          	slli	a2,a1,0x10
 4ce:	81c1                	srli	a1,a1,0x10

000004d0 <.LVL173>:
 4d0:	8dd1                	or	a1,a1,a2

000004d2 <.LVL174>:
 4d2:	fde54637          	lui	a2,0xfde54
 4d6:	80c60613          	addi	a2,a2,-2036 # fde5380c <.LLST12+0xfde52d75>
 4da:	965a                	add	a2,a2,s6
 4dc:	95b6                	add	a1,a1,a3
 4de:	963a                	add	a2,a2,a4
 4e0:	00d7c733          	xor	a4,a5,a3

000004e4 <.LVL176>:
 4e4:	8f2d                	xor	a4,a4,a1
 4e6:	9732                	add	a4,a4,a2

000004e8 <.LVL177>:
 4e8:	00975613          	srli	a2,a4,0x9
 4ec:	075e                	slli	a4,a4,0x17

000004ee <.LVL178>:
 4ee:	8f51                	or	a4,a4,a2

000004f0 <.LVL179>:
 4f0:	a4bef637          	lui	a2,0xa4bef
 4f4:	a4460613          	addi	a2,a2,-1468 # a4beea44 <.LLST12+0xa4bedfad>
 4f8:	9626                	add	a2,a2,s1
 4fa:	972e                	add	a4,a4,a1
 4fc:	963e                	add	a2,a2,a5
 4fe:	00b6c7b3          	xor	a5,a3,a1

00000502 <.LVL181>:
 502:	8fb9                	xor	a5,a5,a4
 504:	97b2                	add	a5,a5,a2

00000506 <.LVL182>:
 506:	00479613          	slli	a2,a5,0x4
 50a:	83f1                	srli	a5,a5,0x1c

0000050c <.LVL183>:
 50c:	8fd1                	or	a5,a5,a2

0000050e <.LVL184>:
 50e:	4bded637          	lui	a2,0x4bded
 512:	fa960613          	addi	a2,a2,-87 # 4bdecfa9 <.LLST12+0x4bdec512>
 516:	967a                	add	a2,a2,t5
 518:	97ba                	add	a5,a5,a4
 51a:	96b2                	add	a3,a3,a2

0000051c <.LVL186>:
 51c:	00e5c633          	xor	a2,a1,a4
 520:	8e3d                	xor	a2,a2,a5
 522:	9636                	add	a2,a2,a3

00000524 <.LVL187>:
 524:	f6bb56b7          	lui	a3,0xf6bb5
 528:	00b61d93          	slli	s11,a2,0xb
 52c:	b6068693          	addi	a3,a3,-1184 # f6bb4b60 <.LLST12+0xf6bb40c9>
 530:	8255                	srli	a2,a2,0x15

00000532 <.LVL188>:
 532:	96de                	add	a3,a3,s7
 534:	01b66633          	or	a2,a2,s11

00000538 <.LVL189>:
 538:	963e                	add	a2,a2,a5
 53a:	95b6                	add	a1,a1,a3

0000053c <.LVL191>:
 53c:	00f746b3          	xor	a3,a4,a5
 540:	8eb1                	xor	a3,a3,a2
 542:	96ae                	add	a3,a3,a1

00000544 <.LVL192>:
 544:	bebfc5b7          	lui	a1,0xbebfc
 548:	01069d93          	slli	s11,a3,0x10
 54c:	c7058593          	addi	a1,a1,-912 # bebfbc70 <.LLST12+0xbebfb1d9>
 550:	82c1                	srli	a3,a3,0x10

00000552 <.LVL193>:
 552:	01b6e6b3          	or	a3,a3,s11

00000556 <.LVL194>:
 556:	95ca                	add	a1,a1,s2
 558:	96b2                	add	a3,a3,a2
 55a:	95ba                	add	a1,a1,a4
 55c:	00c7c733          	xor	a4,a5,a2

00000560 <.LVL196>:
 560:	8f35                	xor	a4,a4,a3
 562:	972e                	add	a4,a4,a1

00000564 <.LVL197>:
 564:	00975593          	srli	a1,a4,0x9
 568:	075e                	slli	a4,a4,0x17

0000056a <.LVL198>:
 56a:	8f4d                	or	a4,a4,a1

0000056c <.LVL199>:
 56c:	289b85b7          	lui	a1,0x289b8
 570:	ec658593          	addi	a1,a1,-314 # 289b7ec6 <.LLST12+0x289b742f>
 574:	95fe                	add	a1,a1,t6
 576:	9736                	add	a4,a4,a3
 578:	97ae                	add	a5,a5,a1

0000057a <.LVL201>:
 57a:	00d645b3          	xor	a1,a2,a3
 57e:	8db9                	xor	a1,a1,a4
 580:	95be                	add	a1,a1,a5

00000582 <.LVL202>:
 582:	eaa127b7          	lui	a5,0xeaa12
 586:	00459d93          	slli	s11,a1,0x4
 58a:	7fa78793          	addi	a5,a5,2042 # eaa127fa <.LLST12+0xeaa11d63>
 58e:	81f1                	srli	a1,a1,0x1c

00000590 <.LVL203>:
 590:	97e2                	add	a5,a5,s8
 592:	01b5e5b3          	or	a1,a1,s11

00000596 <.LVL204>:
 596:	95ba                	add	a1,a1,a4
 598:	963e                	add	a2,a2,a5

0000059a <.LVL206>:
 59a:	00e6c7b3          	xor	a5,a3,a4
 59e:	8fad                	xor	a5,a5,a1
 5a0:	97b2                	add	a5,a5,a2

000005a2 <.LVL207>:
 5a2:	d4ef3637          	lui	a2,0xd4ef3
 5a6:	00b79d93          	slli	s11,a5,0xb
 5aa:	08560613          	addi	a2,a2,133 # d4ef3085 <.LLST12+0xd4ef25ee>
 5ae:	83d5                	srli	a5,a5,0x15

000005b0 <.LVL208>:
 5b0:	01b7e7b3          	or	a5,a5,s11

000005b4 <.LVL209>:
 5b4:	964e                	add	a2,a2,s3
 5b6:	97ae                	add	a5,a5,a1
 5b8:	9636                	add	a2,a2,a3
 5ba:	00b746b3          	xor	a3,a4,a1

000005be <.LVL211>:
 5be:	8ebd                	xor	a3,a3,a5
 5c0:	96b2                	add	a3,a3,a2

000005c2 <.LVL212>:
 5c2:	01069613          	slli	a2,a3,0x10
 5c6:	82c1                	srli	a3,a3,0x10

000005c8 <.LVL213>:
 5c8:	8ed1                	or	a3,a3,a2

000005ca <.LVL214>:
 5ca:	04882637          	lui	a2,0x4882
 5ce:	d0560613          	addi	a2,a2,-763 # 4881d05 <.LLST12+0x488126e>
 5d2:	9616                	add	a2,a2,t0
 5d4:	96be                	add	a3,a3,a5
 5d6:	9732                	add	a4,a4,a2

000005d8 <.LVL216>:
 5d8:	00f5c633          	xor	a2,a1,a5
 5dc:	8e35                	xor	a2,a2,a3
 5de:	963a                	add	a2,a2,a4

000005e0 <.LVL217>:
 5e0:	d9d4d737          	lui	a4,0xd9d4d
 5e4:	00965d93          	srli	s11,a2,0x9
 5e8:	03970713          	addi	a4,a4,57 # d9d4d039 <.LLST12+0xd9d4c5a2>
 5ec:	065e                	slli	a2,a2,0x17

000005ee <.LVL218>:
 5ee:	971a                	add	a4,a4,t1
 5f0:	01b66633          	or	a2,a2,s11

000005f4 <.LVL219>:
 5f4:	9636                	add	a2,a2,a3
 5f6:	95ba                	add	a1,a1,a4

000005f8 <.LVL221>:
 5f8:	00d7c733          	xor	a4,a5,a3
 5fc:	8f31                	xor	a4,a4,a2
 5fe:	972e                	add	a4,a4,a1

00000600 <.LVL222>:
 600:	e6dba5b7          	lui	a1,0xe6dba
 604:	00471d93          	slli	s11,a4,0x4
 608:	9e558593          	addi	a1,a1,-1563 # e6db99e5 <.LLST12+0xe6db8f4e>
 60c:	8371                	srli	a4,a4,0x1c

0000060e <.LVL223>:
 60e:	95d2                	add	a1,a1,s4
 610:	01b76733          	or	a4,a4,s11

00000614 <.LVL224>:
 614:	9732                	add	a4,a4,a2
 616:	97ae                	add	a5,a5,a1

00000618 <.LVL226>:
 618:	00c6c5b3          	xor	a1,a3,a2
 61c:	8db9                	xor	a1,a1,a4
 61e:	95be                	add	a1,a1,a5

00000620 <.LVL227>:
 620:	1fa287b7          	lui	a5,0x1fa28
 624:	00b59d93          	slli	s11,a1,0xb
 628:	cf878793          	addi	a5,a5,-776 # 1fa27cf8 <.LLST12+0x1fa27261>
 62c:	81d5                	srli	a1,a1,0x15

0000062e <.LVL228>:
 62e:	01b5e5b3          	or	a1,a1,s11

00000632 <.LVL229>:
 632:	979e                	add	a5,a5,t2
 634:	95ba                	add	a1,a1,a4
 636:	97b6                	add	a5,a5,a3
 638:	00e646b3          	xor	a3,a2,a4

0000063c <.LVL231>:
 63c:	8ead                	xor	a3,a3,a1
 63e:	96be                	add	a3,a3,a5

00000640 <.LVL232>:
 640:	01069793          	slli	a5,a3,0x10
 644:	82c1                	srli	a3,a3,0x10

00000646 <.LVL233>:
 646:	8edd                	or	a3,a3,a5

00000648 <.LVL234>:
 648:	c4ac57b7          	lui	a5,0xc4ac5
 64c:	66578793          	addi	a5,a5,1637 # c4ac5665 <.LLST12+0xc4ac4bce>
 650:	97f2                	add	a5,a5,t3
 652:	96ae                	add	a3,a3,a1
 654:	963e                	add	a2,a2,a5

00000656 <.LVL236>:
 656:	00b747b3          	xor	a5,a4,a1
 65a:	8fb5                	xor	a5,a5,a3
 65c:	97b2                	add	a5,a5,a2

0000065e <.LVL237>:
 65e:	f4292637          	lui	a2,0xf4292
 662:	0097dd93          	srli	s11,a5,0x9
 666:	24460613          	addi	a2,a2,580 # f4292244 <.LLST12+0xf42917ad>
 66a:	07de                	slli	a5,a5,0x17

0000066c <.LVL238>:
 66c:	01b7e7b3          	or	a5,a5,s11

00000670 <.LVL239>:
 670:	9c32                	add	s8,s8,a2
 672:	97b6                	add	a5,a5,a3
 674:	9c3a                	add	s8,s8,a4
 676:	fff5c713          	not	a4,a1

0000067a <.LVL241>:
 67a:	8f5d                	or	a4,a4,a5
 67c:	8f35                	xor	a4,a4,a3
 67e:	9762                	add	a4,a4,s8

00000680 <.LVL242>:
 680:	00671613          	slli	a2,a4,0x6
 684:	8369                	srli	a4,a4,0x1a

00000686 <.LVL243>:
 686:	8f51                	or	a4,a4,a2

00000688 <.LVL244>:
 688:	432b0637          	lui	a2,0x432b0
 68c:	f9760613          	addi	a2,a2,-105 # 432aff97 <.LLST12+0x432af500>
 690:	9bb2                	add	s7,s7,a2
 692:	973e                	add	a4,a4,a5
 694:	9bae                	add	s7,s7,a1
 696:	fff6c593          	not	a1,a3

0000069a <.LVL246>:
 69a:	8dd9                	or	a1,a1,a4
 69c:	8dbd                	xor	a1,a1,a5
 69e:	95de                	add	a1,a1,s7

000006a0 <.LVL247>:
 6a0:	00a59613          	slli	a2,a1,0xa
 6a4:	81d9                	srli	a1,a1,0x16

000006a6 <.LVL248>:
 6a6:	8dd1                	or	a1,a1,a2

000006a8 <.LVL249>:
 6a8:	ab942637          	lui	a2,0xab942
 6ac:	3a760613          	addi	a2,a2,935 # ab9423a7 <.LLST12+0xab941910>
 6b0:	9b32                	add	s6,s6,a2
 6b2:	95ba                	add	a1,a1,a4
 6b4:	9b36                	add	s6,s6,a3
 6b6:	fff7c693          	not	a3,a5

000006ba <.LVL251>:
 6ba:	8ecd                	or	a3,a3,a1
 6bc:	8eb9                	xor	a3,a3,a4
 6be:	96da                	add	a3,a3,s6

000006c0 <.LVL252>:
 6c0:	00f69613          	slli	a2,a3,0xf
 6c4:	82c5                	srli	a3,a3,0x11

000006c6 <.LVL253>:
 6c6:	8ed1                	or	a3,a3,a2

000006c8 <.LVL254>:
 6c8:	fc93a637          	lui	a2,0xfc93a
 6cc:	03960613          	addi	a2,a2,57 # fc93a039 <.LLST12+0xfc9395a2>
 6d0:	9656                	add	a2,a2,s5
 6d2:	96ae                	add	a3,a3,a1
 6d4:	97b2                	add	a5,a5,a2

000006d6 <.LVL256>:
 6d6:	fff74613          	not	a2,a4
 6da:	8e55                	or	a2,a2,a3
 6dc:	8e2d                	xor	a2,a2,a1
 6de:	963e                	add	a2,a2,a5

000006e0 <.LVL257>:
 6e0:	00b65793          	srli	a5,a2,0xb
 6e4:	0656                	slli	a2,a2,0x15

000006e6 <.LVL258>:
 6e6:	8e5d                	or	a2,a2,a5

000006e8 <.LVL259>:
 6e8:	655b67b7          	lui	a5,0x655b6
 6ec:	9c378793          	addi	a5,a5,-1597 # 655b59c3 <.LLST12+0x655b4f2c>
 6f0:	97d2                	add	a5,a5,s4
 6f2:	9636                	add	a2,a2,a3
 6f4:	973e                	add	a4,a4,a5

000006f6 <.LVL261>:
 6f6:	fff5c793          	not	a5,a1
 6fa:	8fd1                	or	a5,a5,a2
 6fc:	8fb5                	xor	a5,a5,a3
 6fe:	97ba                	add	a5,a5,a4

00000700 <.LVL262>:
 700:	00679713          	slli	a4,a5,0x6
 704:	83e9                	srli	a5,a5,0x1a

00000706 <.LVL263>:
 706:	8fd9                	or	a5,a5,a4

00000708 <.LVL264>:
 708:	8f0cd737          	lui	a4,0x8f0cd
 70c:	c9270713          	addi	a4,a4,-878 # 8f0ccc92 <.LLST12+0x8f0cc1fb>
 710:	974e                	add	a4,a4,s3
 712:	97b2                	add	a5,a5,a2
 714:	95ba                	add	a1,a1,a4

00000716 <.LVL266>:
 716:	fff6c713          	not	a4,a3
 71a:	8f5d                	or	a4,a4,a5
 71c:	8f31                	xor	a4,a4,a2
 71e:	972e                	add	a4,a4,a1

00000720 <.LVL267>:
 720:	00a71593          	slli	a1,a4,0xa
 724:	8359                	srli	a4,a4,0x16

00000726 <.LVL268>:
 726:	8f4d                	or	a4,a4,a1

00000728 <.LVL269>:
 728:	ffeff5b7          	lui	a1,0xffeff
 72c:	47d58593          	addi	a1,a1,1149 # ffeff47d <.LLST12+0xffefe9e6>
 730:	992e                	add	s2,s2,a1
 732:	973e                	add	a4,a4,a5
 734:	9936                	add	s2,s2,a3
 736:	fff64693          	not	a3,a2

0000073a <.LVL271>:
 73a:	8ed9                	or	a3,a3,a4
 73c:	8ebd                	xor	a3,a3,a5
 73e:	96ca                	add	a3,a3,s2

00000740 <.LVL272>:
 740:	00f69593          	slli	a1,a3,0xf
 744:	82c5                	srli	a3,a3,0x11

00000746 <.LVL273>:
 746:	8ecd                	or	a3,a3,a1

00000748 <.LVL274>:
 748:	858465b7          	lui	a1,0x85846
 74c:	dd158593          	addi	a1,a1,-559 # 85845dd1 <.LLST12+0x8584533a>
 750:	94ae                	add	s1,s1,a1
 752:	96ba                	add	a3,a3,a4
 754:	94b2                	add	s1,s1,a2
 756:	fff7c613          	not	a2,a5

0000075a <.LVL276>:
 75a:	8e55                	or	a2,a2,a3
 75c:	8e39                	xor	a2,a2,a4
 75e:	9626                	add	a2,a2,s1

00000760 <.LVL277>:
 760:	00b65593          	srli	a1,a2,0xb
 764:	0656                	slli	a2,a2,0x15

00000766 <.LVL278>:
 766:	8e4d                	or	a2,a2,a1

00000768 <.LVL279>:
 768:	6fa885b7          	lui	a1,0x6fa88
 76c:	e4f58593          	addi	a1,a1,-433 # 6fa87e4f <.LLST12+0x6fa873b8>
 770:	942e                	add	s0,s0,a1
 772:	9636                	add	a2,a2,a3
 774:	97a2                	add	a5,a5,s0

00000776 <.LVL281>:
 776:	fff74413          	not	s0,a4
 77a:	8c51                	or	s0,s0,a2
 77c:	8c35                	xor	s0,s0,a3
 77e:	943e                	add	s0,s0,a5

00000780 <.LVL282>:
 780:	00641793          	slli	a5,s0,0x6
 784:	8069                	srli	s0,s0,0x1a

00000786 <.LVL283>:
 786:	8c5d                	or	s0,s0,a5

00000788 <.LVL284>:
 788:	fe2ce7b7          	lui	a5,0xfe2ce
 78c:	6e078793          	addi	a5,a5,1760 # fe2ce6e0 <.LLST12+0xfe2cdc49>
 790:	93be                	add	t2,t2,a5
 792:	9432                	add	s0,s0,a2
 794:	971e                	add	a4,a4,t2

00000796 <.LVL286>:
 796:	fff6c393          	not	t2,a3
 79a:	0083e3b3          	or	t2,t2,s0
 79e:	00c3c3b3          	xor	t2,t2,a2
 7a2:	93ba                	add	t2,t2,a4

000007a4 <.LVL287>:
 7a4:	a30145b7          	lui	a1,0xa3014
 7a8:	00a39793          	slli	a5,t2,0xa
 7ac:	31458593          	addi	a1,a1,788 # a3014314 <.LLST12+0xa301387d>
 7b0:	0163d393          	srli	t2,t2,0x16

000007b4 <.LVL288>:
 7b4:	00f3e3b3          	or	t2,t2,a5

000007b8 <.LVL289>:
 7b8:	9596                	add	a1,a1,t0
 7ba:	93a2                	add	t2,t2,s0
 7bc:	96ae                	add	a3,a3,a1

000007be <.LVL291>:
 7be:	fff64593          	not	a1,a2
 7c2:	0075e5b3          	or	a1,a1,t2
 7c6:	8da1                	xor	a1,a1,s0
 7c8:	95b6                	add	a1,a1,a3

000007ca <.LVL292>:
 7ca:	00f59793          	slli	a5,a1,0xf
 7ce:	81c5                	srli	a1,a1,0x11

000007d0 <.LVL293>:
 7d0:	8ddd                	or	a1,a1,a5

000007d2 <.LVL294>:
 7d2:	4e0817b7          	lui	a5,0x4e081
 7d6:	1a178793          	addi	a5,a5,417 # 4e0811a1 <.LLST12+0x4e08070a>
 7da:	9fbe                	add	t6,t6,a5
 7dc:	959e                	add	a1,a1,t2
 7de:	9fb2                	add	t6,t6,a2
 7e0:	fff44613          	not	a2,s0

000007e4 <.LVL296>:
 7e4:	8e4d                	or	a2,a2,a1
 7e6:	00764633          	xor	a2,a2,t2
 7ea:	967e                	add	a2,a2,t6

000007ec <.LVL297>:
 7ec:	00b65793          	srli	a5,a2,0xb
 7f0:	0656                	slli	a2,a2,0x15

000007f2 <.LVL298>:
 7f2:	8e5d                	or	a2,a2,a5

000007f4 <.LVL299>:
 7f4:	f75387b7          	lui	a5,0xf7538
 7f8:	e8278793          	addi	a5,a5,-382 # f7537e82 <.LLST12+0xf75373eb>
 7fc:	97fa                	add	a5,a5,t5
 7fe:	962e                	add	a2,a2,a1
 800:	943e                	add	s0,s0,a5

00000802 <.LVL301>:
 802:	fff3c793          	not	a5,t2
 806:	8fd1                	or	a5,a5,a2
 808:	8fad                	xor	a5,a5,a1
 80a:	97a2                	add	a5,a5,s0

0000080c <.LVL302>:
 80c:	00679713          	slli	a4,a5,0x6
 810:	83e9                	srli	a5,a5,0x1a

00000812 <.LVL303>:
 812:	8fd9                	or	a5,a5,a4

00000814 <.LVL304>:
 814:	bd3af737          	lui	a4,0xbd3af
 818:	23570713          	addi	a4,a4,565 # bd3af235 <.LLST12+0xbd3ae79e>
 81c:	9776                	add	a4,a4,t4
 81e:	97b2                	add	a5,a5,a2
 820:	93ba                	add	t2,t2,a4

00000822 <.LVL306>:
 822:	fff5c713          	not	a4,a1
 826:	8f5d                	or	a4,a4,a5
 828:	8f31                	xor	a4,a4,a2
 82a:	971e                	add	a4,a4,t2

0000082c <.LVL307>:
 82c:	00a71693          	slli	a3,a4,0xa
 830:	8359                	srli	a4,a4,0x16

00000832 <.LVL308>:
 832:	8f55                	or	a4,a4,a3

00000834 <.LVL309>:
 834:	2ad7d6b7          	lui	a3,0x2ad7d
 838:	2bb68693          	addi	a3,a3,699 # 2ad7d2bb <.LLST12+0x2ad7c824>
 83c:	96f2                	add	a3,a3,t3
 83e:	973e                	add	a4,a4,a5
 840:	95b6                	add	a1,a1,a3

00000842 <.LVL311>:
 842:	fff64693          	not	a3,a2
 846:	8ed9                	or	a3,a3,a4
 848:	8ebd                	xor	a3,a3,a5
 84a:	96ae                	add	a3,a3,a1

0000084c <.LVL312>:
 84c:	00f69593          	slli	a1,a3,0xf
 850:	82c5                	srli	a3,a3,0x11

00000852 <.LVL313>:
 852:	8ecd                	or	a3,a3,a1

00000854 <.LVL314>:
 854:	eb86d5b7          	lui	a1,0xeb86d
 858:	39158593          	addi	a1,a1,913 # eb86d391 <.LLST12+0xeb86c8fa>
 85c:	932e                	add	t1,t1,a1
 85e:	96ba                	add	a3,a3,a4
 860:	0008a583          	lw	a1,0(a7)
 864:	9332                	add	t1,t1,a2
 866:	fff7c613          	not	a2,a5

0000086a <.LVL316>:
 86a:	8e55                	or	a2,a2,a3
 86c:	8e39                	xor	a2,a2,a4
 86e:	97ae                	add	a5,a5,a1

00000870 <.LVL317>:
 870:	961a                	add	a2,a2,t1

00000872 <.LVL318>:
 872:	00f8a023          	sw	a5,0(a7)
 876:	00b65793          	srli	a5,a2,0xb
 87a:	0656                	slli	a2,a2,0x15

0000087c <.LVL319>:
 87c:	8e5d                	or	a2,a2,a5
 87e:	9cb6                	add	s9,s9,a3
 880:	9d3a                	add	s10,s10,a4
 882:	5432                	lw	s0,44(sp)
 884:	9836                	add	a6,a6,a3
 886:	9832                	add	a6,a6,a2
 888:	0198a423          	sw	s9,8(a7)
 88c:	01a8a623          	sw	s10,12(a7)
 890:	54a2                	lw	s1,40(sp)
 892:	5912                	lw	s2,36(sp)
 894:	5982                	lw	s3,32(sp)
 896:	4a72                	lw	s4,28(sp)
 898:	4ae2                	lw	s5,24(sp)
 89a:	4b52                	lw	s6,20(sp)
 89c:	4bc2                	lw	s7,16(sp)
 89e:	4c32                	lw	s8,12(sp)
 8a0:	4ca2                	lw	s9,8(sp)
 8a2:	4d12                	lw	s10,4(sp)
 8a4:	4d82                	lw	s11,0(sp)
 8a6:	0108a223          	sw	a6,4(a7)
 8aa:	04000613          	li	a2,64
 8ae:	4581                	li	a1,0
 8b0:	6145                	addi	sp,sp,48
 8b2:	00000317          	auipc	t1,0x0
 8b6:	00030067          	jr	t1 # 8b2 <.LVL319+0x36>

Disassembly of section .text.wpa_MD5Init:

00000000 <wpa_MD5Init>:
   0:	674527b7          	lui	a5,0x67452
   4:	30178793          	addi	a5,a5,769 # 67452301 <.LLST12+0x6745186a>
   8:	c11c                	sw	a5,0(a0)
   a:	efcdb7b7          	lui	a5,0xefcdb
   e:	b8978793          	addi	a5,a5,-1143 # efcdab89 <.LLST12+0xefcda0f2>
  12:	c15c                	sw	a5,4(a0)
  14:	98bae7b7          	lui	a5,0x98bae
  18:	cfe78793          	addi	a5,a5,-770 # 98badcfe <.LLST12+0x98bad267>
  1c:	c51c                	sw	a5,8(a0)
  1e:	103257b7          	lui	a5,0x10325
  22:	47678793          	addi	a5,a5,1142 # 10325476 <.LLST12+0x103249df>
  26:	00052a23          	sw	zero,20(a0)
  2a:	00052823          	sw	zero,16(a0)
  2e:	c55c                	sw	a5,12(a0)
  30:	8082                	ret

Disassembly of section .text.wpa_MD5Update:

00000000 <wpa_MD5Update>:
   0:	1101                	addi	sp,sp,-32
   2:	cc22                	sw	s0,24(sp)
   4:	c84a                	sw	s2,16(sp)
   6:	c64e                	sw	s3,12(sp)
   8:	ce06                	sw	ra,28(sp)
   a:	ca26                	sw	s1,20(sp)
   c:	c452                	sw	s4,8(sp)
   e:	491c                	lw	a5,16(a0)
  10:	00361713          	slli	a4,a2,0x3
  14:	842a                	mv	s0,a0
  16:	0037d513          	srli	a0,a5,0x3

0000001a <.LVL323>:
  1a:	97ba                	add	a5,a5,a4
  1c:	c81c                	sw	a5,16(s0)
  1e:	89ae                	mv	s3,a1
  20:	8932                	mv	s2,a2
  22:	03f57513          	andi	a0,a0,63

00000026 <.LVL324>:
  26:	00e7f563          	bgeu	a5,a4,30 <.L5>
  2a:	485c                	lw	a5,20(s0)
  2c:	0785                	addi	a5,a5,1
  2e:	c85c                	sw	a5,20(s0)

00000030 <.L5>:
  30:	4858                	lw	a4,20(s0)
  32:	01d95793          	srli	a5,s2,0x1d
  36:	04000493          	li	s1,64
  3a:	97ba                	add	a5,a5,a4
  3c:	c85c                	sw	a5,20(s0)
  3e:	8c89                	sub	s1,s1,a0

00000040 <.LVL325>:
  40:	06996d63          	bltu	s2,s1,ba <.L9>
  44:	05850513          	addi	a0,a0,88

00000048 <.LVL326>:
  48:	8626                	mv	a2,s1

0000004a <.LVL327>:
  4a:	85ce                	mv	a1,s3

0000004c <.LVL328>:
  4c:	9522                	add	a0,a0,s0

0000004e <.LVL329>:
  4e:	00000097          	auipc	ra,0x0
  52:	000080e7          	jalr	ra # 4e <.LVL329>

00000056 <.LVL330>:
  56:	05840593          	addi	a1,s0,88
  5a:	8522                	mv	a0,s0
  5c:	00000097          	auipc	ra,0x0
  60:	000080e7          	jalr	ra # 5c <.LVL330+0x6>

00000064 <.LVL331>:
  64:	01840a13          	addi	s4,s0,24

00000068 <.L7>:
  68:	03f48793          	addi	a5,s1,63
  6c:	009985b3          	add	a1,s3,s1
  70:	0327e563          	bltu	a5,s2,9a <.L8>
  74:	4501                	li	a0,0

00000076 <.L6>:
  76:	05850513          	addi	a0,a0,88

0000007a <.LVL334>:
  7a:	9522                	add	a0,a0,s0

0000007c <.LVL335>:
  7c:	4462                	lw	s0,24(sp)

0000007e <.LVL336>:
  7e:	40990633          	sub	a2,s2,s1
  82:	009985b3          	add	a1,s3,s1
  86:	40f2                	lw	ra,28(sp)
  88:	44d2                	lw	s1,20(sp)

0000008a <.LVL337>:
  8a:	4942                	lw	s2,16(sp)

0000008c <.LVL338>:
  8c:	49b2                	lw	s3,12(sp)

0000008e <.LVL339>:
  8e:	4a22                	lw	s4,8(sp)
  90:	6105                	addi	sp,sp,32
  92:	00000317          	auipc	t1,0x0
  96:	00030067          	jr	t1 # 92 <.LVL339+0x4>

0000009a <.L8>:
  9a:	04000613          	li	a2,64
  9e:	8552                	mv	a0,s4
  a0:	00000097          	auipc	ra,0x0
  a4:	000080e7          	jalr	ra # a0 <.L8+0x6>

000000a8 <.LVL341>:
  a8:	85d2                	mv	a1,s4
  aa:	8522                	mv	a0,s0
  ac:	00000097          	auipc	ra,0x0
  b0:	000080e7          	jalr	ra # ac <.LVL341+0x4>

000000b4 <.LVL342>:
  b4:	04048493          	addi	s1,s1,64
  b8:	bf45                	j	68 <.L7>

000000ba <.L9>:
  ba:	4481                	li	s1,0

000000bc <.LVL345>:
  bc:	bf6d                	j	76 <.L6>

Disassembly of section .text.wpa_MD5Final:

00000000 <wpa_MD5Final>:
   0:	1101                	addi	sp,sp,-32
   2:	cc22                	sw	s0,24(sp)
   4:	ca26                	sw	s1,20(sp)
   6:	842e                	mv	s0,a1
   8:	4621                	li	a2,8
   a:	84aa                	mv	s1,a0
   c:	05c1                	addi	a1,a1,16

0000000e <.LVL347>:
   e:	0028                	addi	a0,sp,8

00000010 <.LVL348>:
  10:	ce06                	sw	ra,28(sp)
  12:	00000097          	auipc	ra,0x0
  16:	000080e7          	jalr	ra # 12 <.LVL348+0x2>

0000001a <.LVL349>:
  1a:	4810                	lw	a2,16(s0)
  1c:	03700793          	li	a5,55
  20:	820d                	srli	a2,a2,0x3
  22:	03f67613          	andi	a2,a2,63

00000026 <.LVL350>:
  26:	04c7ea63          	bltu	a5,a2,7a <.L12>
  2a:	03800793          	li	a5,56

0000002e <.L15>:
  2e:	000005b7          	lui	a1,0x0
  32:	40c78633          	sub	a2,a5,a2

00000036 <.LVL351>:
  36:	8522                	mv	a0,s0
  38:	00058593          	mv	a1,a1
  3c:	00000097          	auipc	ra,0x0
  40:	000080e7          	jalr	ra # 3c <.LVL351+0x6>

00000044 <.LVL352>:
  44:	002c                	addi	a1,sp,8
  46:	8522                	mv	a0,s0
  48:	4621                	li	a2,8
  4a:	00000097          	auipc	ra,0x0
  4e:	000080e7          	jalr	ra # 4a <.LVL352+0x6>

00000052 <.LVL353>:
  52:	85a2                	mv	a1,s0
  54:	4641                	li	a2,16
  56:	8526                	mv	a0,s1
  58:	00000097          	auipc	ra,0x0
  5c:	000080e7          	jalr	ra # 58 <.LVL353+0x6>

00000060 <.LVL354>:
  60:	8522                	mv	a0,s0
  62:	09800613          	li	a2,152
  66:	4581                	li	a1,0
  68:	00000097          	auipc	ra,0x0
  6c:	000080e7          	jalr	ra # 68 <.LVL354+0x8>

00000070 <.LVL355>:
  70:	40f2                	lw	ra,28(sp)
  72:	4462                	lw	s0,24(sp)

00000074 <.LVL356>:
  74:	44d2                	lw	s1,20(sp)

00000076 <.LVL357>:
  76:	6105                	addi	sp,sp,32
  78:	8082                	ret

0000007a <.L12>:
  7a:	07800793          	li	a5,120
  7e:	bf45                	j	2e <.L15>
