
sm.o:     file format elf32-littleriscv


Disassembly of section .text.txl_get_seq_ctrl:

00000000 <txl_get_seq_ctrl>:
   0:	000007b7          	lui	a5,0x0
   4:	00078793          	mv	a5,a5
   8:	0547d503          	lhu	a0,84(a5) # 54 <.LBE123>
   c:	0505                	addi	a0,a0,1
   e:	0542                	slli	a0,a0,0x10
  10:	8141                	srli	a0,a0,0x10
  12:	04a79a23          	sh	a0,84(a5)
  16:	0512                	slli	a0,a0,0x4
  18:	0542                	slli	a0,a0,0x10
  1a:	8141                	srli	a0,a0,0x10
  1c:	8082                	ret

Disassembly of section .text.sm_delete_resources:

00000000 <sm_delete_resources>:
   0:	1141                	addi	sp,sp,-16
   2:	c226                	sw	s1,4(sp)
   4:	6485                	lui	s1,0x1
   6:	c422                	sw	s0,8(sp)
   8:	4689                	li	a3,2
   a:	842a                	mv	s0,a0
   c:	4619                	li	a2,6
   e:	4595                	li	a1,5
  10:	41348513          	addi	a0,s1,1043 # 1413 <.LASF454+0x6>

00000014 <.LVL1>:
  14:	c606                	sw	ra,12(sp)
  16:	c04a                	sw	s2,0(sp)
  18:	00000097          	auipc	ra,0x0
  1c:	000080e7          	jalr	ra # 18 <.LVL1+0x4>

00000020 <.LVL2>:
  20:	892a                	mv	s2,a0

00000022 <.LVL3>:
  22:	4689                	li	a3,2
  24:	4619                	li	a2,6
  26:	4595                	li	a1,5
  28:	41148513          	addi	a0,s1,1041

0000002c <.LVL4>:
  2c:	00000097          	auipc	ra,0x0
  30:	000080e7          	jalr	ra # 2c <.LVL4>

00000034 <.LVL5>:
  34:	00090023          	sb	zero,0(s2)
  38:	05744783          	lbu	a5,87(s0)
  3c:	84aa                	mv	s1,a0

0000003e <.LVL6>:
  3e:	854a                	mv	a0,s2
  40:	00f900a3          	sb	a5,1(s2)
  44:	00000097          	auipc	ra,0x0
  48:	000080e7          	jalr	ra # 44 <.LVL6+0x6>

0000004c <.LVL7>:
  4c:	05844783          	lbu	a5,88(s0)
  50:	c39d                	beqz	a5,76 <.L3>

00000052 <.LBB49>:
  52:	4691                	li	a3,4
  54:	4619                	li	a2,6
  56:	4581                	li	a1,0
  58:	4579                	li	a0,30
  5a:	00000097          	auipc	ra,0x0
  5e:	000080e7          	jalr	ra # 5a <.LBB49+0x8>

00000062 <.LVL8>:
  62:	00050123          	sb	zero,2(a0)
  66:	05744703          	lbu	a4,87(s0)
  6a:	00e501a3          	sb	a4,3(a0)
  6e:	00000097          	auipc	ra,0x0
  72:	000080e7          	jalr	ra # 6e <.LVL8+0xc>

00000076 <.L3>:
  76:	06044703          	lbu	a4,96(s0)
  7a:	0ff00793          	li	a5,255
  7e:	02f70263          	beq	a4,a5,a2 <.L4>

00000082 <.LBB50>:
  82:	4685                	li	a3,1
  84:	4619                	li	a2,6
  86:	4581                	li	a1,0
  88:	4531                	li	a0,12
  8a:	00000097          	auipc	ra,0x0
  8e:	000080e7          	jalr	ra # 8a <.LBB50+0x8>

00000092 <.LVL10>:
  92:	06044783          	lbu	a5,96(s0)
  96:	00f50023          	sb	a5,0(a0)
  9a:	00000097          	auipc	ra,0x0
  9e:	000080e7          	jalr	ra # 9a <.LVL10+0x8>

000000a2 <.L4>:
  a2:	403c                	lw	a5,64(s0)
  a4:	c799                	beqz	a5,b2 <.L5>
  a6:	05744503          	lbu	a0,87(s0)
  aa:	00000097          	auipc	ra,0x0
  ae:	000080e7          	jalr	ra # aa <.L4+0x8>

000000b2 <.L5>:
  b2:	00048023          	sb	zero,0(s1)
  b6:	05744783          	lbu	a5,87(s0)
  ba:	8526                	mv	a0,s1
  bc:	00f480a3          	sb	a5,1(s1)
  c0:	00000097          	auipc	ra,0x0
  c4:	000080e7          	jalr	ra # c0 <.L5+0xe>

000000c8 <.LVL13>:
  c8:	40b2                	lw	ra,12(sp)
  ca:	3e042023          	sw	zero,992(s0)
  ce:	4422                	lw	s0,8(sp)

000000d0 <.LVL14>:
  d0:	4492                	lw	s1,4(sp)

000000d2 <.LVL15>:
  d2:	4902                	lw	s2,0(sp)

000000d4 <.LVL16>:
  d4:	0141                	addi	sp,sp,16
  d6:	8082                	ret

Disassembly of section .text.sm_frame_tx_cfm_handler:

00000000 <sm_frame_tx_cfm_handler>:
   0:	1101                	addi	sp,sp,-32
   2:	cc22                	sw	s0,24(sp)
   4:	842a                	mv	s0,a0
   6:	4519                	li	a0,6

00000008 <.LVL18>:
   8:	c62e                	sw	a1,12(sp)
   a:	ce06                	sw	ra,28(sp)
   c:	ca26                	sw	s1,20(sp)
   e:	00000097          	auipc	ra,0x0
  12:	000080e7          	jalr	ra # e <.LVL18+0x6>

00000016 <.LVL19>:
  16:	45b2                	lw	a1,12(sp)
  18:	400307b7          	lui	a5,0x40030
  1c:	8dfd                	and	a1,a1,a5
  1e:	cd89                	beqz	a1,38 <.L13>
  20:	156d                	addi	a0,a0,-5

00000022 <.LVL20>:
  22:	4485                	li	s1,1
  24:	00a4ea63          	bltu	s1,a0,38 <.L13>

00000028 <.LBB53>:
  28:	458d                	li	a1,3
  2a:	8522                	mv	a0,s0
  2c:	00000097          	auipc	ra,0x0
  30:	000080e7          	jalr	ra # 2c <.LBB53+0x4>

00000034 <.LVL22>:
  34:	2c940b23          	sb	s1,726(s0)

00000038 <.L13>:
  38:	40f2                	lw	ra,28(sp)
  3a:	4462                	lw	s0,24(sp)

0000003c <.LVL24>:
  3c:	44d2                	lw	s1,20(sp)
  3e:	6105                	addi	sp,sp,32

00000040 <.LVL25>:
  40:	8082                	ret

Disassembly of section .text.sm_init:

00000000 <sm_init>:
   0:	000007b7          	lui	a5,0x0
   4:	4581                	li	a1,0
   6:	4519                	li	a0,6
   8:	0007a023          	sw	zero,0(a5) # 0 <sm_init>
   c:	00000317          	auipc	t1,0x0
  10:	00030067          	jr	t1 # c <sm_init+0xc>

Disassembly of section .text.sm_get_bss_params:

00000000 <sm_get_bss_params>:
   0:	7139                	addi	sp,sp,-64
   2:	d256                	sw	s5,36(sp)
   4:	00000ab7          	lui	s5,0x0
   8:	dc22                	sw	s0,56(sp)
   a:	000aa403          	lw	s0,0(s5) # 0 <sm_get_bss_params>

0000000e <.LVL28>:
   e:	da26                	sw	s1,52(sp)
  10:	d84a                	sw	s2,48(sp)
  12:	d64e                	sw	s3,44(sp)
  14:	d452                	sw	s4,40(sp)
  16:	d05a                	sw	s6,32(sp)
  18:	ce5e                	sw	s7,28(sp)
  1a:	cc62                	sw	s8,24(sp)
  1c:	de06                	sw	ra,60(sp)
  1e:	00052023          	sw	zero,0(a0)
  22:	8b2a                	mv	s6,a0
  24:	00000537          	lui	a0,0x0

00000028 <.LVL29>:
  28:	57fd                	li	a5,-1
  2a:	0005a023          	sw	zero,0(a1)
  2e:	00050513          	mv	a0,a0
  32:	02240913          	addi	s2,s0,34
  36:	8a2e                	mv	s4,a1
  38:	c63e                	sw	a5,12(sp)
  3a:	4481                	li	s1,0
  3c:	00000097          	auipc	ra,0x0
  40:	000080e7          	jalr	ra # 3c <.LVL29+0x14>

00000044 <.LVL30>:
  44:	000a8a93          	mv	s5,s5
  48:	89ca                	mv	s3,s2
  4a:	00000c37          	lui	s8,0x0
  4e:	4b8d                	li	s7,3

00000050 <.L21>:
  50:	00095603          	lhu	a2,0(s2)
  54:	85a6                	mv	a1,s1
  56:	000c0513          	mv	a0,s8
  5a:	0485                	addi	s1,s1,1

0000005c <.LVL32>:
  5c:	00000097          	auipc	ra,0x0
  60:	000080e7          	jalr	ra # 5c <.LVL32>

00000064 <.LVL33>:
  64:	0909                	addi	s2,s2,2
  66:	ff7495e3          	bne	s1,s7,50 <.L21>
  6a:	02244783          	lbu	a5,34(s0)
  6e:	0017f713          	andi	a4,a5,1
  72:	e30d                	bnez	a4,94 <.L22>
  74:	ebc9                	bnez	a5,106 <.L23>
  76:	02344783          	lbu	a5,35(s0)
  7a:	e7d1                	bnez	a5,106 <.L23>
  7c:	02444783          	lbu	a5,36(s0)
  80:	e3d9                	bnez	a5,106 <.L23>
  82:	02544783          	lbu	a5,37(s0)
  86:	e3c1                	bnez	a5,106 <.L23>
  88:	02644783          	lbu	a5,38(s0)
  8c:	efad                	bnez	a5,106 <.L23>
  8e:	02744783          	lbu	a5,39(s0)
  92:	ebb5                	bnez	a5,106 <.L23>

00000094 <.L22>:
  94:	00000537          	lui	a0,0x0
  98:	00140593          	addi	a1,s0,1
  9c:	00050513          	mv	a0,a0
  a0:	00000097          	auipc	ra,0x0
  a4:	000080e7          	jalr	ra # a0 <.L22+0xc>

000000a8 <.LVL34>:
  a8:	006c                	addi	a1,sp,12
  aa:	8522                	mv	a0,s0
  ac:	00000097          	auipc	ra,0x0
  b0:	000080e7          	jalr	ra # ac <.LVL34+0x4>

000000b4 <.LVL35>:
  b4:	45b2                	lw	a1,12(sp)
  b6:	84aa                	mv	s1,a0

000000b8 <.LVL36>:
  b8:	00000537          	lui	a0,0x0
  bc:	00050513          	mv	a0,a0
  c0:	00000097          	auipc	ra,0x0
  c4:	000080e7          	jalr	ra # c0 <.LVL36+0x8>

000000c8 <.LVL37>:
  c8:	c0a5                	beqz	s1,128 <.L24>
  ca:	47b2                	lw	a5,12(sp)
  cc:	0007c663          	bltz	a5,d8 <.L25>
  d0:	009b2023          	sw	s1,0(s6)
  d4:	00faaa23          	sw	a5,20(s5)

000000d8 <.L25>:
  d8:	54dc                	lw	a5,44(s1)
  da:	00fa2023          	sw	a5,0(s4)

000000de <.L26>:
  de:	00000537          	lui	a0,0x0
  e2:	00050513          	mv	a0,a0
  e6:	00000097          	auipc	ra,0x0
  ea:	000080e7          	jalr	ra # e6 <.L26+0x8>

000000ee <.LVL39>:
  ee:	50f2                	lw	ra,60(sp)
  f0:	5462                	lw	s0,56(sp)
  f2:	54d2                	lw	s1,52(sp)
  f4:	5942                	lw	s2,48(sp)
  f6:	59b2                	lw	s3,44(sp)

000000f8 <.LVL40>:
  f8:	5a22                	lw	s4,40(sp)

000000fa <.LVL41>:
  fa:	5a92                	lw	s5,36(sp)
  fc:	5b02                	lw	s6,32(sp)

000000fe <.LVL42>:
  fe:	4bf2                	lw	s7,28(sp)
 100:	4c62                	lw	s8,24(sp)
 102:	6121                	addi	sp,sp,64
 104:	8082                	ret

00000106 <.L23>:
 106:	00000537          	lui	a0,0x0
 10a:	00050513          	mv	a0,a0
 10e:	00000097          	auipc	ra,0x0
 112:	000080e7          	jalr	ra # 10e <.L23+0x8>

00000116 <.LVL44>:
 116:	854e                	mv	a0,s3
 118:	013b2023          	sw	s3,0(s6)
 11c:	00000097          	auipc	ra,0x0
 120:	000080e7          	jalr	ra # 11c <.LVL44+0x6>

00000124 <.LVL45>:
 124:	84aa                	mv	s1,a0

00000126 <.LVL46>:
 126:	f94d                	bnez	a0,d8 <.L25>

00000128 <.L24>:
 128:	02845703          	lhu	a4,40(s0)
 12c:	67c1                	lui	a5,0x10
 12e:	17fd                	addi	a5,a5,-1
 130:	faf707e3          	beq	a4,a5,de <.L26>
 134:	02840413          	addi	s0,s0,40

00000138 <.LVL48>:
 138:	008a2023          	sw	s0,0(s4)
 13c:	b74d                	j	de <.L26>

Disassembly of section .text.sm_scan_bss:

00000000 <sm_scan_bss>:
   0:	7179                	addi	sp,sp,-48
   2:	000007b7          	lui	a5,0x0
   6:	ce4e                	sw	s3,28(sp)
   8:	0007a983          	lw	s3,0(a5) # 0 <sm_scan_bss>

0000000c <.LVL50>:
   c:	d226                	sw	s1,36(sp)
   e:	d04a                	sw	s2,32(sp)
  10:	15400693          	li	a3,340
  14:	892a                	mv	s2,a0
  16:	4619                	li	a2,6
  18:	84ae                	mv	s1,a1
  1a:	6505                	lui	a0,0x1

0000001c <.LVL51>:
  1c:	4591                	li	a1,4

0000001e <.LVL52>:
  1e:	d606                	sw	ra,44(sp)
  20:	d422                	sw	s0,40(sp)
  22:	cc52                	sw	s4,24(sp)
  24:	ca56                	sw	s5,20(sp)
  26:	00000097          	auipc	ra,0x0
  2a:	000080e7          	jalr	ra # 26 <.LVL52+0x8>

0000002e <.LVL53>:
  2e:	03d9c783          	lbu	a5,61(s3)
  32:	842a                	mv	s0,a0

00000034 <.LVL54>:
  34:	14052423          	sw	zero,328(a0) # 1148 <.LASF100>
  38:	14f50723          	sb	a5,334(a0)
  3c:	14051623          	sh	zero,332(a0)
  40:	02200613          	li	a2,34
  44:	85ce                	mv	a1,s3
  46:	0fc50513          	addi	a0,a0,252
  4a:	00000097          	auipc	ra,0x0
  4e:	000080e7          	jalr	ra # 4a <.LVL54+0x16>

00000052 <.LVL55>:
  52:	4785                	li	a5,1
  54:	14f40823          	sb	a5,336(s0)
  58:	14040513          	addi	a0,s0,320
  5c:	4619                	li	a2,6
  5e:	85ca                	mv	a1,s2
  60:	00091663          	bnez	s2,6c <.L46>
  64:	000005b7          	lui	a1,0x0
  68:	00058593          	mv	a1,a1

0000006c <.L46>:
  6c:	00000097          	auipc	ra,0x0
  70:	000080e7          	jalr	ra # 6c <.L46>

00000074 <.LVL56>:
  74:	cc95                	beqz	s1,b0 <.L38>
  76:	4619                	li	a2,6
  78:	85a6                	mv	a1,s1
  7a:	8522                	mv	a0,s0
  7c:	00000097          	auipc	ra,0x0
  80:	000080e7          	jalr	ra # 7c <.LVL56+0x8>

00000084 <.LVL57>:
  84:	4785                	li	a5,1
  86:	14f407a3          	sb	a5,335(s0)

0000008a <.L39>:
  8a:	8522                	mv	a0,s0
  8c:	00000097          	auipc	ra,0x0
  90:	000080e7          	jalr	ra # 8c <.L39+0x2>

00000094 <.LVL59>:
  94:	5422                	lw	s0,40(sp)

00000096 <.LVL60>:
  96:	50b2                	lw	ra,44(sp)
  98:	5492                	lw	s1,36(sp)
  9a:	5902                	lw	s2,32(sp)
  9c:	49f2                	lw	s3,28(sp)
  9e:	4a62                	lw	s4,24(sp)
  a0:	4ad2                	lw	s5,20(sp)
  a2:	4585                	li	a1,1
  a4:	4519                	li	a0,6
  a6:	6145                	addi	sp,sp,48
  a8:	00000317          	auipc	t1,0x0
  ac:	00030067          	jr	t1 # a8 <.LVL60+0x12>

000000b0 <.L38>:
  b0:	000007b7          	lui	a5,0x0
  b4:	03078793          	addi	a5,a5,48 # 30 <.LVL53+0x2>
  b8:	c43e                	sw	a5,8(sp)
  ba:	000007b7          	lui	a5,0x0
  be:	08478793          	addi	a5,a5,132 # 84 <.LVL57>
  c2:	c63e                	sw	a5,12(sp)
  c4:	000007b7          	lui	a5,0x0
  c8:	12c7d783          	lhu	a5,300(a5) # 12c <.LBB104>
  cc:	140407a3          	sb	zero,335(s0)
  d0:	00410913          	addi	s2,sp,4

000000d4 <.LVL62>:
  d4:	00f11223          	sh	a5,4(sp)

000000d8 <.LVL63>:
  d8:	00810993          	addi	s3,sp,8

000000dc <.LVL64>:
  dc:	00610a93          	addi	s5,sp,6
  e0:	4a19                	li	s4,6

000000e2 <.L40>:
  e2:	4481                	li	s1,0
  e4:	a80d                	j	116 <.L44>

000000e6 <.L42>:
  e6:	034485b3          	mul	a1,s1,s4
  ea:	0009a783          	lw	a5,0(s3)
  ee:	95be                	add	a1,a1,a5
  f0:	0035c783          	lbu	a5,3(a1) # 3 <sm_scan_bss+0x3>
  f4:	8b89                	andi	a5,a5,2
  f6:	ef99                	bnez	a5,114 <.L41>
  f8:	14f44503          	lbu	a0,335(s0)
  fc:	4619                	li	a2,6
  fe:	00150793          	addi	a5,a0,1
 102:	03450533          	mul	a0,a0,s4
 106:	14f407a3          	sb	a5,335(s0)
 10a:	9522                	add	a0,a0,s0
 10c:	00000097          	auipc	ra,0x0
 110:	000080e7          	jalr	ra # 10c <.L42+0x26>

00000114 <.L41>:
 114:	0485                	addi	s1,s1,1

00000116 <.L44>:
 116:	00094783          	lbu	a5,0(s2)
 11a:	fcf4c6e3          	blt	s1,a5,e6 <.L42>

0000011e <.LVL69>:
 11e:	0905                	addi	s2,s2,1

00000120 <.LVL70>:
 120:	0991                	addi	s3,s3,4
 122:	fd5910e3          	bne	s2,s5,e2 <.L40>
 126:	b795                	j	8a <.L39>

Disassembly of section .text.sm_join_bss:

00000000 <sm_join_bss>:
   0:	1101                	addi	sp,sp,-32
   2:	c256                	sw	s5,4(sp)
   4:	8aaa                	mv	s5,a0
   6:	6505                	lui	a0,0x1

00000008 <.LVL72>:
   8:	15400693          	li	a3,340
   c:	ca26                	sw	s1,20(sp)
   e:	c84a                	sw	s2,16(sp)
  10:	c452                	sw	s4,8(sp)
  12:	000004b7          	lui	s1,0x0
  16:	8a2e                	mv	s4,a1
  18:	8932                	mv	s2,a2
  1a:	4591                	li	a1,4

0000001c <.LVL73>:
  1c:	4619                	li	a2,6

0000001e <.LVL74>:
  1e:	0509                	addi	a0,a0,2
  20:	ce06                	sw	ra,28(sp)
  22:	cc22                	sw	s0,24(sp)
  24:	c64e                	sw	s3,12(sp)
  26:	0004a983          	lw	s3,0(s1) # 0 <sm_join_bss>

0000002a <.LVL75>:
  2a:	00000097          	auipc	ra,0x0
  2e:	000080e7          	jalr	ra # 2a <.LVL75>

00000032 <.LVL76>:
  32:	85d2                	mv	a1,s4
  34:	4619                	li	a2,6
  36:	842a                	mv	s0,a0

00000038 <.LVL77>:
  38:	4a05                	li	s4,1

0000003a <.LVL78>:
  3a:	00000097          	auipc	ra,0x0
  3e:	000080e7          	jalr	ra # 3a <.LVL78>

00000042 <.LVL79>:
  42:	02200613          	li	a2,34
  46:	85ce                	mv	a1,s3
  48:	154407a3          	sb	s4,335(s0)
  4c:	0fc40513          	addi	a0,s0,252
  50:	00000097          	auipc	ra,0x0
  54:	000080e7          	jalr	ra # 50 <.LVL79+0xe>

00000058 <.LVL80>:
  58:	15440823          	sb	s4,336(s0)
  5c:	14041623          	sh	zero,332(s0)
  60:	14042423          	sw	zero,328(s0)
  64:	03d9c783          	lbu	a5,61(s3)
  68:	4619                	li	a2,6
  6a:	85d6                	mv	a1,s5
  6c:	14f40723          	sb	a5,334(s0)
  70:	14040513          	addi	a0,s0,320
  74:	00000097          	auipc	ra,0x0
  78:	000080e7          	jalr	ra # 74 <.LVL80+0x1c>

0000007c <.LVL81>:
  7c:	00048493          	mv	s1,s1
  80:	00090863          	beqz	s2,90 <.L48>
  84:	00344783          	lbu	a5,3(s0)
  88:	0017e793          	ori	a5,a5,1
  8c:	00f401a3          	sb	a5,3(s0)

00000090 <.L48>:
  90:	8522                	mv	a0,s0
  92:	01248823          	sb	s2,16(s1)
  96:	00000097          	auipc	ra,0x0
  9a:	000080e7          	jalr	ra # 96 <.L48+0x6>

0000009e <.LVL82>:
  9e:	4462                	lw	s0,24(sp)

000000a0 <.LVL83>:
  a0:	40f2                	lw	ra,28(sp)
  a2:	44d2                	lw	s1,20(sp)
  a4:	4942                	lw	s2,16(sp)
  a6:	49b2                	lw	s3,12(sp)

000000a8 <.LVL84>:
  a8:	4a22                	lw	s4,8(sp)
  aa:	4a92                	lw	s5,4(sp)

000000ac <.LVL85>:
  ac:	4589                	li	a1,2
  ae:	4519                	li	a0,6
  b0:	6105                	addi	sp,sp,32
  b2:	00000317          	auipc	t1,0x0
  b6:	00030067          	jr	t1 # b2 <.LVL85+0x6>

Disassembly of section .text.sm_add_chan_ctx:

00000000 <sm_add_chan_ctx>:
   0:	000007b7          	lui	a5,0x0
   4:	0007a783          	lw	a5,0(a5) # 0 <sm_add_chan_ctx>
   8:	1101                	addi	sp,sp,-32
   a:	ce06                	sw	ra,28(sp)
   c:	03d7c783          	lbu	a5,61(a5)
  10:	5d800693          	li	a3,1496
  14:	00000737          	lui	a4,0x0
  18:	02d787b3          	mul	a5,a5,a3
  1c:	00070713          	mv	a4,a4
  20:	85aa                	mv	a1,a0
  22:	0048                	addi	a0,sp,4

00000024 <.LVL90>:
  24:	973e                	add	a4,a4,a5
  26:	3a472683          	lw	a3,932(a4) # 3a4 <.LLST113+0x3>
  2a:	3db74703          	lbu	a4,987(a4)
  2e:	0026c603          	lbu	a2,2(a3)
  32:	00e102a3          	sb	a4,5(sp)
  36:	00c10223          	sb	a2,4(sp)
  3a:	0006d703          	lhu	a4,0(a3)
  3e:	00e11323          	sh	a4,6(sp)
  42:	00000737          	lui	a4,0x0
  46:	3a070713          	addi	a4,a4,928 # 3a0 <.LASF1526+0x1>
  4a:	97ba                	add	a5,a5,a4
  4c:	479c                	lw	a5,8(a5)
  4e:	c43e                	sw	a5,8(sp)
  50:	00468783          	lb	a5,4(a3)
  54:	00f10623          	sb	a5,12(sp)
  58:	00000097          	auipc	ra,0x0
  5c:	000080e7          	jalr	ra # 58 <.LVL90+0x34>

00000060 <.LVL91>:
  60:	40f2                	lw	ra,28(sp)
  62:	6105                	addi	sp,sp,32
  64:	8082                	ret

Disassembly of section .text.sm_send_next_bss_param:

00000000 <sm_send_next_bss_param>:
   0:	00000537          	lui	a0,0x0
   4:	1141                	addi	sp,sp,-16
   6:	00850513          	addi	a0,a0,8 # 8 <sm_send_next_bss_param+0x8>
   a:	c422                	sw	s0,8(sp)
   c:	c606                	sw	ra,12(sp)
   e:	00000097          	auipc	ra,0x0
  12:	000080e7          	jalr	ra # e <sm_send_next_bss_param+0xe>

00000016 <.LVL92>:
  16:	842a                	mv	s0,a0

00000018 <.LVL93>:
  18:	ed19                	bnez	a0,36 <.L56>
  1a:	000005b7          	lui	a1,0x0
  1e:	00000537          	lui	a0,0x0
  22:	1a000613          	li	a2,416
  26:	00058593          	mv	a1,a1
  2a:	00050513          	mv	a0,a0
  2e:	00000097          	auipc	ra,0x0
  32:	000080e7          	jalr	ra # 2e <.LVL93+0x16>

00000036 <.L56>:
  36:	00c40513          	addi	a0,s0,12
  3a:	4422                	lw	s0,8(sp)

0000003c <.LVL95>:
  3c:	40b2                	lw	ra,12(sp)
  3e:	0141                	addi	sp,sp,16
  40:	00000317          	auipc	t1,0x0
  44:	00030067          	jr	t1 # 40 <.LVL95+0x4>

Disassembly of section .text.sm_set_bss_param:

00000000 <sm_set_bss_param>:
   0:	7179                	addi	sp,sp,-48
   2:	000007b7          	lui	a5,0x0
   6:	d04a                	sw	s2,32(sp)
   8:	0007a903          	lw	s2,0(a5) # 0 <sm_set_bss_param>

0000000c <.LVL97>:
   c:	d226                	sw	s1,36(sp)
   e:	6485                	lui	s1,0x1
  10:	d606                	sw	ra,44(sp)
  12:	d422                	sw	s0,40(sp)
  14:	cc52                	sw	s4,24(sp)
  16:	ca56                	sw	s5,20(sp)
  18:	c85a                	sw	s6,16(sp)
  1a:	c65e                	sw	s7,12(sp)
  1c:	c462                	sw	s8,8(sp)
  1e:	ce4e                	sw	s3,28(sp)
  20:	4689                	li	a3,2
  22:	4619                	li	a2,6
  24:	4595                	li	a1,5
  26:	41348513          	addi	a0,s1,1043 # 1413 <.LASF454+0x6>
  2a:	03d94983          	lbu	s3,61(s2)
  2e:	00000097          	auipc	ra,0x0
  32:	000080e7          	jalr	ra # 2e <.LVL97+0x22>

00000036 <.LVL99>:
  36:	842a                	mv	s0,a0

00000038 <.LVL100>:
  38:	469d                	li	a3,7
  3a:	4619                	li	a2,6
  3c:	4581                	li	a1,0
  3e:	4561                	li	a0,24
  40:	00000097          	auipc	ra,0x0
  44:	000080e7          	jalr	ra # 40 <.LVL100+0x8>

00000048 <.LVL101>:
  48:	8c2a                	mv	s8,a0

0000004a <.LVL102>:
  4a:	46a1                	li	a3,8
  4c:	4619                	li	a2,6
  4e:	4581                	li	a1,0
  50:	4559                	li	a0,22

00000052 <.LVL103>:
  52:	00000097          	auipc	ra,0x0
  56:	000080e7          	jalr	ra # 52 <.LVL103>

0000005a <.LVL104>:
  5a:	8aaa                	mv	s5,a0

0000005c <.LVL105>:
  5c:	4691                	li	a3,4
  5e:	4619                	li	a2,6
  60:	4581                	li	a1,0
  62:	4551                	li	a0,20

00000064 <.LVL106>:
  64:	00000097          	auipc	ra,0x0
  68:	000080e7          	jalr	ra # 64 <.LVL106>

0000006c <.LVL107>:
  6c:	4689                	li	a3,2
  6e:	8baa                	mv	s7,a0

00000070 <.LVL108>:
  70:	4619                	li	a2,6
  72:	4595                	li	a1,5
  74:	41148513          	addi	a0,s1,1041

00000078 <.LVL109>:
  78:	00000097          	auipc	ra,0x0
  7c:	000080e7          	jalr	ra # 78 <.LVL109>

00000080 <.LVL110>:
  80:	000004b7          	lui	s1,0x0
  84:	8a2a                	mv	s4,a0

00000086 <.LVL111>:
  86:	00848513          	addi	a0,s1,8 # 8 <sm_set_bss_param+0x8>

0000008a <.LVL112>:
  8a:	00000097          	auipc	ra,0x0
  8e:	000080e7          	jalr	ra # 8a <.LVL112>

00000092 <.LVL113>:
  92:	4785                	li	a5,1
  94:	00f40023          	sb	a5,0(s0)
  98:	03d94783          	lbu	a5,61(s2)

0000009c <.LBB73>:
  9c:	ff440593          	addi	a1,s0,-12
  a0:	00848513          	addi	a0,s1,8

000000a4 <.LBE73>:
  a4:	00f400a3          	sb	a5,1(s0)

000000a8 <.LBB77>:
  a8:	00000097          	auipc	ra,0x0
  ac:	000080e7          	jalr	ra # a8 <.LBB77>

000000b0 <.LBE78>:
  b0:	5d800513          	li	a0,1496
  b4:	02a989b3          	mul	s3,s3,a0
  b8:	00000b37          	lui	s6,0x0
  bc:	000b0b13          	mv	s6,s6
  c0:	4619                	li	a2,6
  c2:	8562                	mv	a0,s8
  c4:	013b0433          	add	s0,s6,s3

000000c8 <.LVL117>:
  c8:	37840593          	addi	a1,s0,888
  cc:	00000097          	auipc	ra,0x0
  d0:	000080e7          	jalr	ra # cc <.LVL117+0x4>

000000d4 <.LVL118>:
  d4:	03d94783          	lbu	a5,61(s2)

000000d8 <.LBB79>:
  d8:	ff4c0593          	addi	a1,s8,-12 # fffffff4 <.LASF410+0xffffa802>
  dc:	00848513          	addi	a0,s1,8

000000e0 <.LBE79>:
  e0:	00fc0323          	sb	a5,6(s8)

000000e4 <.LBB83>:
  e4:	00000097          	auipc	ra,0x0
  e8:	000080e7          	jalr	ra # e4 <.LBB83>

000000ec <.LBE84>:
  ec:	3a442783          	lw	a5,932(s0)
  f0:	3b098513          	addi	a0,s3,944
  f4:	4585                	li	a1,1
  f6:	0027c783          	lbu	a5,2(a5)
  fa:	955a                	add	a0,a0,s6

000000fc <.LBB85>:
  fc:	00000b37          	lui	s6,0x0

00000100 <.LBE85>:
 100:	00fa82a3          	sb	a5,5(s5)
 104:	00000097          	auipc	ra,0x0
 108:	000080e7          	jalr	ra # 104 <.LBE85+0x4>

0000010c <.LVL121>:
 10c:	00aaa023          	sw	a0,0(s5)
 110:	03d94783          	lbu	a5,61(s2)

00000114 <.LBB98>:
 114:	ff4a8593          	addi	a1,s5,-12
 118:	00848513          	addi	a0,s1,8

0000011c <.LBE98>:
 11c:	00fa8223          	sb	a5,4(s5)

00000120 <.LBB102>:
 120:	00000097          	auipc	ra,0x0
 124:	000080e7          	jalr	ra # 120 <.LBB102>

00000128 <.LBE103>:
 128:	3ac45783          	lhu	a5,940(s0)

0000012c <.LBB104>:
 12c:	ff4b8593          	addi	a1,s7,-12
 130:	00848513          	addi	a0,s1,8

00000134 <.LBE104>:
 134:	00fb9023          	sh	a5,0(s7)
 138:	03d94783          	lbu	a5,61(s2)

0000013c <.LBB108>:
 13c:	00000ab7          	lui	s5,0x0

00000140 <.LBE108>:
 140:	4981                	li	s3,0
 142:	00fb8123          	sb	a5,2(s7)

00000146 <.LBB109>:
 146:	00000097          	auipc	ra,0x0
 14a:	000080e7          	jalr	ra # 146 <.LBB109>

0000014e <.LBB111>:
 14e:	000a8a93          	mv	s5,s5

00000152 <.LBE90>:
 152:	8c22                	mv	s8,s0

00000154 <.LVL127>:
 154:	000b0b13          	mv	s6,s6

00000158 <.LBE111>:
 158:	4b91                	li	s7,4

0000015a <.L60>:
 15a:	46a1                	li	a3,8
 15c:	4619                	li	a2,6
 15e:	4581                	li	a1,0
 160:	4569                	li	a0,26
 162:	00000097          	auipc	ra,0x0
 166:	000080e7          	jalr	ra # 162 <.L60+0x8>

0000016a <.LVL129>:
 16a:	3c442783          	lw	a5,964(s0)
 16e:	013502a3          	sb	s3,5(a0) # 5 <sm_set_bss_param+0x5>
 172:	c11c                	sw	a5,0(a0)
 174:	03d94783          	lbu	a5,61(s2)
 178:	00f50323          	sb	a5,6(a0)

0000017c <.LBB91>:
 17c:	020aa703          	lw	a4,32(s5) # 20 <.LVL97+0x14>
 180:	4781                	li	a5,0
 182:	cf11                	beqz	a4,19e <.L59>
 184:	3c0c0703          	lb	a4,960(s8)
 188:	00075b63          	bgez	a4,19e <.L59>
 18c:	016987b3          	add	a5,s3,s6
 190:	0007c783          	lbu	a5,0(a5)
 194:	03c94703          	lbu	a4,60(s2)
 198:	8ff9                	and	a5,a5,a4
 19a:	00f037b3          	snez	a5,a5

0000019e <.L59>:
 19e:	00f50223          	sb	a5,4(a0)

000001a2 <.LBB113>:
 1a2:	ff450593          	addi	a1,a0,-12

000001a6 <.LBE113>:
 1a6:	0985                	addi	s3,s3,1

000001a8 <.LBB114>:
 1a8:	00848513          	addi	a0,s1,8

000001ac <.LVL133>:
 1ac:	00000097          	auipc	ra,0x0
 1b0:	000080e7          	jalr	ra # 1ac <.LVL133>

000001b4 <.LVL134>:
 1b4:	0411                	addi	s0,s0,4

000001b6 <.LBE114>:
 1b6:	fb7992e3          	bne	s3,s7,15a <.L60>
 1ba:	4785                	li	a5,1
 1bc:	00fa0023          	sb	a5,0(s4)
 1c0:	03d94783          	lbu	a5,61(s2)

000001c4 <.LBB115>:
 1c4:	ff4a0593          	addi	a1,s4,-12
 1c8:	00848513          	addi	a0,s1,8

000001cc <.LBE115>:
 1cc:	00fa00a3          	sb	a5,1(s4)

000001d0 <.LBB119>:
 1d0:	00000097          	auipc	ra,0x0
 1d4:	000080e7          	jalr	ra # 1d0 <.LBB119>

000001d8 <.LBE120>:
 1d8:	00000097          	auipc	ra,0x0
 1dc:	000080e7          	jalr	ra # 1d8 <.LBE120>

000001e0 <.LVL137>:
 1e0:	5422                	lw	s0,40(sp)
 1e2:	50b2                	lw	ra,44(sp)
 1e4:	5492                	lw	s1,36(sp)
 1e6:	5902                	lw	s2,32(sp)

000001e8 <.LVL138>:
 1e8:	49f2                	lw	s3,28(sp)

000001ea <.LVL139>:
 1ea:	4a62                	lw	s4,24(sp)

000001ec <.LVL140>:
 1ec:	4ad2                	lw	s5,20(sp)
 1ee:	4b42                	lw	s6,16(sp)
 1f0:	4bb2                	lw	s7,12(sp)
 1f2:	4c22                	lw	s8,8(sp)
 1f4:	4591                	li	a1,4
 1f6:	4519                	li	a0,6
 1f8:	6145                	addi	sp,sp,48
 1fa:	00000317          	auipc	t1,0x0
 1fe:	00030067          	jr	t1 # 1fa <.LVL140+0xe>

Disassembly of section .text.sm_disconnect_process:

00000000 <sm_disconnect_process>:
   0:	1141                	addi	sp,sp,-16
   2:	c226                	sw	s1,4(sp)
   4:	84aa                	mv	s1,a0
   6:	6509                	lui	a0,0x2

00000008 <.LVL143>:
   8:	c04a                	sw	s2,0(sp)
   a:	4691                	li	a3,4
   c:	892e                	mv	s2,a1
   e:	4619                	li	a2,6
  10:	45b5                	li	a1,13

00000012 <.LVL144>:
  12:	80550513          	addi	a0,a0,-2043 # 1805 <.LASF1476+0x8>
  16:	c606                	sw	ra,12(sp)
  18:	c422                	sw	s0,8(sp)
  1a:	00000097          	auipc	ra,0x0
  1e:	000080e7          	jalr	ra # 1a <.LVL144+0x8>

00000022 <.LVL145>:
  22:	842a                	mv	s0,a0

00000024 <.LVL146>:
  24:	8526                	mv	a0,s1
  26:	00000097          	auipc	ra,0x0
  2a:	000080e7          	jalr	ra # 26 <.LVL146+0x2>

0000002e <.LVL147>:
  2e:	01241023          	sh	s2,0(s0)
  32:	0574c783          	lbu	a5,87(s1)
  36:	00f40123          	sb	a5,2(s0)
  3a:	000007b7          	lui	a5,0x0
  3e:	0117c783          	lbu	a5,17(a5) # 11 <.LVL143+0x9>
  42:	c781                	beqz	a5,4a <.L67>
  44:	4785                	li	a5,1
  46:	00f401a3          	sb	a5,3(s0)

0000004a <.L67>:
  4a:	8522                	mv	a0,s0
  4c:	4422                	lw	s0,8(sp)

0000004e <.LVL148>:
  4e:	40b2                	lw	ra,12(sp)
  50:	4492                	lw	s1,4(sp)

00000052 <.LVL149>:
  52:	4902                	lw	s2,0(sp)
  54:	0141                	addi	sp,sp,16
  56:	00000317          	auipc	t1,0x0
  5a:	00030067          	jr	t1 # 56 <.LVL149+0x4>

Disassembly of section .text.sm_deauth_cfm:

00000000 <sm_deauth_cfm>:
   0:	4581                	li	a1,0

00000002 <.LVL152>:
   2:	00000317          	auipc	t1,0x0
   6:	00030067          	jr	t1 # 2 <.LVL152>

Disassembly of section .text.sm_disconnect:

00000000 <sm_disconnect>:
   0:	5d800793          	li	a5,1496
   4:	02f507b3          	mul	a5,a0,a5
   8:	1101                	addi	sp,sp,-32
   a:	cc22                	sw	s0,24(sp)
   c:	00000437          	lui	s0,0x0
  10:	00040413          	mv	s0,s0
  14:	ce06                	sw	ra,28(sp)
  16:	ca26                	sw	s1,20(sp)
  18:	c84a                	sw	s2,16(sp)
  1a:	c64e                	sw	s3,12(sp)
  1c:	c452                	sw	s4,8(sp)
  1e:	c256                	sw	s5,4(sp)
  20:	c05a                	sw	s6,0(sp)
  22:	943e                	add	s0,s0,a5
  24:	05644783          	lbu	a5,86(s0) # 56 <.LBE123+0x2>
  28:	12079263          	bnez	a5,14c <.L73>
  2c:	05844783          	lbu	a5,88(s0)
  30:	10078e63          	beqz	a5,14c <.L73>
  34:	8aae                	mv	s5,a1
  36:	8a2a                	mv	s4,a0
  38:	45a1                	li	a1,8

0000003a <.LVL155>:
  3a:	4519                	li	a0,6

0000003c <.LVL156>:
  3c:	06044b03          	lbu	s6,96(s0)
  40:	00000097          	auipc	ra,0x0
  44:	000080e7          	jalr	ra # 40 <.LVL156+0x4>

00000048 <.LBB121>:
  48:	3a442783          	lw	a5,932(s0)

0000004c <.LBE122>:
  4c:	10000593          	li	a1,256

00000050 <.LBB123>:
  50:	0027c503          	lbu	a0,2(a5)

00000054 <.LBE123>:
  54:	00a03533          	snez	a0,a0
  58:	00000097          	auipc	ra,0x0
  5c:	000080e7          	jalr	ra # 58 <.LBE123+0x4>

00000060 <.LVL158>:
  60:	84aa                	mv	s1,a0

00000062 <.LVL159>:
  62:	c175                	beqz	a0,146 <.L77>
  64:	85aa                	mv	a1,a0
  66:	8522                	mv	a0,s0
  68:	00000097          	auipc	ra,0x0
  6c:	000080e7          	jalr	ra # 68 <.LVL159+0x6>

00000070 <.LBB124>:
  70:	0684a903          	lw	s2,104(s1)

00000074 <.LBB127>:
  74:	fc000793          	li	a5,-64
  78:	000009b7          	lui	s3,0x0
  7c:	14f90623          	sb	a5,332(s2)
  80:	1b000793          	li	a5,432
  84:	02fb0b33          	mul	s6,s6,a5
  88:	00098993          	mv	s3,s3
  8c:	4619                	li	a2,6
  8e:	140906a3          	sb	zero,333(s2)
  92:	14090723          	sb	zero,334(s2)
  96:	140907a3          	sb	zero,335(s2)
  9a:	15090513          	addi	a0,s2,336
  9e:	99da                	add	s3,s3,s6
  a0:	09f9                	addi	s3,s3,30
  a2:	85ce                	mv	a1,s3
  a4:	00000097          	auipc	ra,0x0
  a8:	000080e7          	jalr	ra # a4 <.LBB127+0x30>

000000ac <.LVL162>:
  ac:	4619                	li	a2,6
  ae:	05040593          	addi	a1,s0,80
  b2:	15690513          	addi	a0,s2,342
  b6:	00000097          	auipc	ra,0x0
  ba:	000080e7          	jalr	ra # b6 <.LVL162+0xa>

000000be <.LVL163>:
  be:	4619                	li	a2,6
  c0:	85ce                	mv	a1,s3
  c2:	15c90513          	addi	a0,s2,348
  c6:	00000097          	auipc	ra,0x0
  ca:	000080e7          	jalr	ra # c6 <.LVL163+0x8>

000000ce <.LVL164>:
  ce:	00000097          	auipc	ra,0x0
  d2:	000080e7          	jalr	ra # ce <.LVL164>

000000d6 <.LVL165>:
  d6:	16a90123          	sb	a0,354(s2)
  da:	000007b7          	lui	a5,0x0
  de:	8121                	srli	a0,a0,0x8
  e0:	16a901a3          	sb	a0,355(s2)
  e4:	00078793          	mv	a5,a5
  e8:	2cf4a623          	sw	a5,716(s1)
  ec:	2c84a823          	sw	s0,720(s1)
  f0:	034487a3          	sb	s4,47(s1)
  f4:	06044783          	lbu	a5,96(s0)
  f8:	85d6                	mv	a1,s5
  fa:	16490513          	addi	a0,s2,356
  fe:	02f48823          	sb	a5,48(s1)

00000102 <.LVL166>:
 102:	00000097          	auipc	ra,0x0
 106:	000080e7          	jalr	ra # 102 <.LVL166>

0000010a <.LVL167>:
 10a:	54f8                	lw	a4,108(s1)

0000010c <.LVL168>:
 10c:	458d                	li	a1,3
 10e:	4b5c                	lw	a5,20(a4)
 110:	07dd                	addi	a5,a5,23
 112:	97aa                	add	a5,a5,a0
 114:	0571                	addi	a0,a0,28

00000116 <.LVL169>:
 116:	cf48                	sw	a0,28(a4)
 118:	cf1c                	sw	a5,24(a4)
 11a:	8526                	mv	a0,s1

0000011c <.LVL170>:
 11c:	00000097          	auipc	ra,0x0
 120:	000080e7          	jalr	ra # 11c <.LVL170>

00000124 <.LVL171>:
 124:	e505                	bnez	a0,14c <.L73>

00000126 <.LBB128>:
 126:	2d04a503          	lw	a0,720(s1)
 12a:	4581                	li	a1,0

0000012c <.L82>:
 12c:	4462                	lw	s0,24(sp)
 12e:	40f2                	lw	ra,28(sp)
 130:	44d2                	lw	s1,20(sp)

00000132 <.LVL174>:
 132:	4942                	lw	s2,16(sp)
 134:	49b2                	lw	s3,12(sp)
 136:	4a22                	lw	s4,8(sp)
 138:	4a92                	lw	s5,4(sp)
 13a:	4b02                	lw	s6,0(sp)
 13c:	6105                	addi	sp,sp,32
 13e:	00000317          	auipc	t1,0x0
 142:	00030067          	jr	t1 # 13e <.LVL174+0xc>

00000146 <.L77>:
 146:	4581                	li	a1,0
 148:	8522                	mv	a0,s0
 14a:	b7cd                	j	12c <.L82>

0000014c <.L73>:
 14c:	40f2                	lw	ra,28(sp)
 14e:	4462                	lw	s0,24(sp)
 150:	44d2                	lw	s1,20(sp)
 152:	4942                	lw	s2,16(sp)
 154:	49b2                	lw	s3,12(sp)
 156:	4a22                	lw	s4,8(sp)
 158:	4a92                	lw	s5,4(sp)
 15a:	4b02                	lw	s6,0(sp)
 15c:	6105                	addi	sp,sp,32
 15e:	8082                	ret

Disassembly of section .text.sm_connect_ind:

00000000 <sm_connect_ind>:
   0:	7179                	addi	sp,sp,-48
   2:	d04a                	sw	s2,32(sp)
   4:	00000937          	lui	s2,0x0
   8:	d606                	sw	ra,44(sp)
   a:	d226                	sw	s1,36(sp)
   c:	cc52                	sw	s4,24(sp)
   e:	c85a                	sw	s6,16(sp)
  10:	d422                	sw	s0,40(sp)
  12:	ce4e                	sw	s3,28(sp)
  14:	ca56                	sw	s5,20(sp)
  16:	c65e                	sw	s7,12(sp)
  18:	00090793          	mv	a5,s2
  1c:	0007aa83          	lw	s5,0(a5) # 0 <sm_connect_ind>
  20:	43c0                	lw	s0,4(a5)

00000022 <.LVL179>:
  22:	0147ab83          	lw	s7,20(a5)
  26:	03dac983          	lbu	s3,61(s5)

0000002a <.LVL180>:
  2a:	5d800793          	li	a5,1496
  2e:	00000a37          	lui	s4,0x0
  32:	02f987b3          	mul	a5,s3,a5
  36:	000a0493          	mv	s1,s4
  3a:	4619                	li	a2,6
  3c:	8b2a                	mv	s6,a0
  3e:	013404a3          	sb	s3,9(s0)
  42:	00240513          	addi	a0,s0,2

00000046 <.LVL181>:
  46:	00090913          	mv	s2,s2
  4a:	000a0a13          	mv	s4,s4
  4e:	94be                	add	s1,s1,a5
  50:	37848593          	addi	a1,s1,888
  54:	00000097          	auipc	ra,0x0
  58:	000080e7          	jalr	ra # 54 <.LVL181+0xe>

0000005c <.LVL182>:
  5c:	0604c783          	lbu	a5,96(s1)
  60:	00000537          	lui	a0,0x0
  64:	85a2                	mv	a1,s0
  66:	00f40523          	sb	a5,10(s0)
  6a:	40b0                	lw	a2,64(s1)
  6c:	00050513          	mv	a0,a0
  70:	00000097          	auipc	ra,0x0
  74:	000080e7          	jalr	ra # 70 <.LVL182+0x14>

00000078 <.LVL183>:
  78:	40bc                	lw	a5,64(s1)
  7a:	000405a3          	sb	zero,11(s0)
  7e:	c3dd                	beqz	a5,124 <.L84>
  80:	40bc                	lw	a5,64(s1)
  82:	0047c783          	lbu	a5,4(a5)
  86:	32f40b23          	sb	a5,822(s0)
  8a:	40bc                	lw	a5,64(s1)
  8c:	0067d783          	lhu	a5,6(a5)
  90:	32f41c23          	sh	a5,824(s0)
  94:	40bc                	lw	a5,64(s1)
  96:	0087d783          	lhu	a5,8(a5)
  9a:	32f42e23          	sw	a5,828(s0)
  9e:	40bc                	lw	a5,64(s1)
  a0:	00a7d783          	lhu	a5,10(a5)
  a4:	34f42023          	sw	a5,832(s0)
  a8:	40bc                	lw	a5,64(s1)
  aa:	0057c783          	lbu	a5,5(a5)
  ae:	32f40d23          	sb	a5,826(s0)

000000b2 <.L85>:
  b2:	5d800793          	li	a5,1496
  b6:	02f987b3          	mul	a5,s3,a5
  ba:	4681                	li	a3,0
  bc:	97d2                	add	a5,a5,s4
  be:	3e07a703          	lw	a4,992(a5)
  c2:	8b05                	andi	a4,a4,1
  c4:	00e40623          	sb	a4,12(s0)
  c8:	c319                	beqz	a4,ce <.L86>
  ca:	3c17c683          	lbu	a3,961(a5)

000000ce <.L86>:
  ce:	00d406a3          	sb	a3,13(s0)
  d2:	00040423          	sb	zero,8(s0)
  d6:	060b1263          	bnez	s6,13a <.L87>
  da:	4581                	li	a1,0
  dc:	4519                	li	a0,6
  de:	00000097          	auipc	ra,0x0
  e2:	000080e7          	jalr	ra # de <.L86+0x10>

000000e6 <.L88>:
  e6:	00092503          	lw	a0,0(s2) # 0 <sm_connect_ind>

000000ea <.LBE130>:
  ea:	1551                	addi	a0,a0,-12
  ec:	00000097          	auipc	ra,0x0
  f0:	000080e7          	jalr	ra # ec <.LBE130+0x2>

000000f4 <.LVL185>:
  f4:	00092023          	sw	zero,0(s2)
  f8:	000908a3          	sb	zero,17(s2)
  fc:	01641023          	sh	s6,0(s0)
 100:	8522                	mv	a0,s0
 102:	00000097          	auipc	ra,0x0
 106:	000080e7          	jalr	ra # 102 <.LVL185+0xe>

0000010a <.LVL186>:
 10a:	50b2                	lw	ra,44(sp)
 10c:	5422                	lw	s0,40(sp)

0000010e <.LVL187>:
 10e:	00092223          	sw	zero,4(s2)
 112:	5492                	lw	s1,36(sp)
 114:	5902                	lw	s2,32(sp)
 116:	49f2                	lw	s3,28(sp)
 118:	4a62                	lw	s4,24(sp)
 11a:	4ad2                	lw	s5,20(sp)

0000011c <.LVL189>:
 11c:	4b42                	lw	s6,16(sp)
 11e:	4bb2                	lw	s7,12(sp)

00000120 <.LVL190>:
 120:	6145                	addi	sp,sp,48
 122:	8082                	ret

00000124 <.L84>:
 124:	32040b23          	sb	zero,822(s0)
 128:	32041c23          	sh	zero,824(s0)
 12c:	32042e23          	sw	zero,828(s0)
 130:	34042023          	sw	zero,832(s0)
 134:	32040d23          	sb	zero,826(s0)
 138:	bfad                	j	b2 <.L85>

0000013a <.L87>:
 13a:	45a1                	li	a1,8
 13c:	4519                	li	a0,6
 13e:	00000097          	auipc	ra,0x0
 142:	000080e7          	jalr	ra # 13e <.L87+0x4>

00000146 <.LVL192>:
 146:	00000537          	lui	a0,0x0
 14a:	865e                	mv	a2,s7
 14c:	001a8593          	addi	a1,s5,1
 150:	00050513          	mv	a0,a0
 154:	00000097          	auipc	ra,0x0
 158:	000080e7          	jalr	ra # 154 <.LVL192+0xe>

0000015c <.LVL193>:
 15c:	020bc363          	bltz	s7,182 <.L89>
 160:	00000537          	lui	a0,0x0
 164:	00050513          	mv	a0,a0
 168:	00000097          	auipc	ra,0x0
 16c:	000080e7          	jalr	ra # 168 <.LVL193+0xc>

00000170 <.LVL194>:
 170:	85de                	mv	a1,s7
 172:	8556                	mv	a0,s5
 174:	00000097          	auipc	ra,0x0
 178:	000080e7          	jalr	ra # 174 <.LVL194+0x4>

0000017c <.LVL195>:
 17c:	57fd                	li	a5,-1
 17e:	00f92a23          	sw	a5,20(s2)

00000182 <.L89>:
 182:	5d800513          	li	a0,1496
 186:	02a98533          	mul	a0,s3,a0
 18a:	9552                	add	a0,a0,s4
 18c:	00000097          	auipc	ra,0x0
 190:	000080e7          	jalr	ra # 18c <.L89+0xa>

00000194 <.LVL196>:
 194:	bf89                	j	e6 <.L88>

Disassembly of section .text.sm_supplicant_deauth_cfm:

00000000 <sm_supplicant_deauth_cfm>:
   0:	00859793          	slli	a5,a1,0x8
   4:	4521                	li	a0,8

00000006 <.LVL198>:
   6:	0007cf63          	bltz	a5,24 <.L99>
   a:	00000537          	lui	a0,0x0
   e:	1141                	addi	sp,sp,-16
  10:	00050513          	mv	a0,a0
  14:	c606                	sw	ra,12(sp)
  16:	00000097          	auipc	ra,0x0
  1a:	000080e7          	jalr	ra # 16 <.LVL198+0x10>

0000001e <.LVL199>:
  1e:	40b2                	lw	ra,12(sp)
  20:	4521                	li	a0,8
  22:	0141                	addi	sp,sp,16

00000024 <.L99>:
  24:	00000317          	auipc	t1,0x0
  28:	00030067          	jr	t1 # 24 <.L99>

Disassembly of section .text.sm_auth_send:

00000000 <sm_auth_send>:
   0:	7179                	addi	sp,sp,-48
   2:	000007b7          	lui	a5,0x0
   6:	cc52                	sw	s4,24(sp)
   8:	0007aa03          	lw	s4,0(a5) # 0 <sm_auth_send>

0000000c <.LVL202>:
   c:	d04a                	sw	s2,32(sp)
   e:	ca56                	sw	s5,20(sp)
  10:	c85a                	sw	s6,16(sp)
  12:	d606                	sw	ra,44(sp)
  14:	d422                	sw	s0,40(sp)
  16:	d226                	sw	s1,36(sp)
  18:	ce4e                	sw	s3,28(sp)
  1a:	c65e                	sw	s7,12(sp)
  1c:	03da4783          	lbu	a5,61(s4) # 3d <.LBB132+0x3>
  20:	5d800713          	li	a4,1496
  24:	00000937          	lui	s2,0x0
  28:	02e787b3          	mul	a5,a5,a4
  2c:	00090913          	mv	s2,s2
  30:	8aaa                	mv	s5,a0
  32:	8b2e                	mv	s6,a1
  34:	10000593          	li	a1,256

00000038 <.LVL205>:
  38:	993e                	add	s2,s2,a5

0000003a <.LBB132>:
  3a:	3a492783          	lw	a5,932(s2) # 3a4 <.LLST113+0x3>

0000003e <.LBE132>:
  3e:	06094b83          	lbu	s7,96(s2)

00000042 <.LBB133>:
  42:	0027c503          	lbu	a0,2(a5)

00000046 <.LBE134>:
  46:	00a03533          	snez	a0,a0
  4a:	00000097          	auipc	ra,0x0
  4e:	000080e7          	jalr	ra # 4a <.LBE134+0x4>

00000052 <.LVL208>:
  52:	14050063          	beqz	a0,192 <.L101>
  56:	842a                	mv	s0,a0
  58:	85aa                	mv	a1,a0
  5a:	854a                	mv	a0,s2

0000005c <.LVL209>:
  5c:	00000097          	auipc	ra,0x0
  60:	000080e7          	jalr	ra # 5c <.LVL209>

00000064 <.LBB135>:
  64:	5424                	lw	s1,104(s0)

00000066 <.LBB139>:
  66:	fb000793          	li	a5,-80
  6a:	000009b7          	lui	s3,0x0
  6e:	14f48623          	sb	a5,332(s1)
  72:	1b000793          	li	a5,432
  76:	02fb8bb3          	mul	s7,s7,a5
  7a:	00098993          	mv	s3,s3
  7e:	140486a3          	sb	zero,333(s1)
  82:	14048723          	sb	zero,334(s1)
  86:	140487a3          	sb	zero,335(s1)
  8a:	4619                	li	a2,6
  8c:	15048513          	addi	a0,s1,336
  90:	99de                	add	s3,s3,s7
  92:	09f9                	addi	s3,s3,30
  94:	85ce                	mv	a1,s3
  96:	00000097          	auipc	ra,0x0
  9a:	000080e7          	jalr	ra # 96 <.LBB139+0x30>

0000009e <.LVL213>:
  9e:	05090593          	addi	a1,s2,80
  a2:	4619                	li	a2,6
  a4:	15648513          	addi	a0,s1,342
  a8:	00000097          	auipc	ra,0x0
  ac:	000080e7          	jalr	ra # a8 <.LVL213+0xa>

000000b0 <.LVL214>:
  b0:	4619                	li	a2,6
  b2:	85ce                	mv	a1,s3
  b4:	15c48513          	addi	a0,s1,348
  b8:	00000097          	auipc	ra,0x0
  bc:	000080e7          	jalr	ra # b8 <.LVL214+0x8>

000000c0 <.LVL215>:
  c0:	00000097          	auipc	ra,0x0
  c4:	000080e7          	jalr	ra # c0 <.LVL215>

000000c8 <.LVL216>:
  c8:	16a48123          	sb	a0,354(s1)
  cc:	8121                	srli	a0,a0,0x8
  ce:	16a481a3          	sb	a0,355(s1)
  d2:	05794783          	lbu	a5,87(s2)

000000d6 <.LBB140>:
  d6:	14c48493          	addi	s1,s1,332

000000da <.LBE140>:
  da:	02f407a3          	sb	a5,47(s0)
  de:	06094783          	lbu	a5,96(s2)
  e2:	04040f23          	sb	zero,94(s0)
  e6:	06040023          	sb	zero,96(s0)
  ea:	02f40823          	sb	a5,48(s0)

000000ee <.LVL218>:
  ee:	03ba4703          	lbu	a4,59(s4)
  f2:	4785                	li	a5,1
  f4:	4961                	li	s2,24
  f6:	02f71063          	bne	a4,a5,116 <.L102>
  fa:	478d                	li	a5,3
  fc:	00fa9d63          	bne	s5,a5,116 <.L102>
 100:	4661                	li	a2,24
 102:	85a6                	mv	a1,s1
 104:	8522                	mv	a0,s0
 106:	00000097          	auipc	ra,0x0
 10a:	000080e7          	jalr	ra # 106 <.LVL218+0x18>

0000010e <.LVL219>:
 10e:	05e44783          	lbu	a5,94(s0)
 112:	01878913          	addi	s2,a5,24

00000116 <.L102>:
 116:	03ba4583          	lbu	a1,59(s4)
 11a:	8656                	mv	a2,s5
 11c:	875a                	mv	a4,s6
 11e:	4681                	li	a3,0
 120:	01248533          	add	a0,s1,s2
 124:	00000097          	auipc	ra,0x0
 128:	000080e7          	jalr	ra # 124 <.L102+0xe>

0000012c <.LVL221>:
 12c:	06044783          	lbu	a5,96(s0)
 130:	5478                	lw	a4,108(s0)
 132:	2c842823          	sw	s0,720(s0)
 136:	97ca                	add	a5,a5,s2
 138:	953e                	add	a0,a0,a5

0000013a <.LVL222>:
 13a:	000007b7          	lui	a5,0x0
 13e:	00078793          	mv	a5,a5
 142:	2cf42623          	sw	a5,716(s0)

00000146 <.LVL223>:
 146:	4b5c                	lw	a5,20(a4)
 148:	458d                	li	a1,3
 14a:	17fd                	addi	a5,a5,-1
 14c:	97aa                	add	a5,a5,a0
 14e:	0511                	addi	a0,a0,4

00000150 <.LVL224>:
 150:	cf48                	sw	a0,28(a4)
 152:	cf1c                	sw	a5,24(a4)
 154:	8522                	mv	a0,s0

00000156 <.LVL225>:
 156:	00000097          	auipc	ra,0x0
 15a:	000080e7          	jalr	ra # 156 <.LVL225>

0000015e <.LVL226>:
 15e:	6509                	lui	a0,0x2
 160:	4599                	li	a1,6
 162:	80650513          	addi	a0,a0,-2042 # 1806 <.LASF263>
 166:	00032637          	lui	a2,0x32
 16a:	00000097          	auipc	ra,0x0
 16e:	000080e7          	jalr	ra # 16a <.LVL226+0xc>

00000172 <.LVL227>:
 172:	5422                	lw	s0,40(sp)

00000174 <.LVL228>:
 174:	50b2                	lw	ra,44(sp)
 176:	5492                	lw	s1,36(sp)

00000178 <.LVL229>:
 178:	5902                	lw	s2,32(sp)
 17a:	49f2                	lw	s3,28(sp)
 17c:	4a62                	lw	s4,24(sp)

0000017e <.LVL230>:
 17e:	4ad2                	lw	s5,20(sp)
 180:	4b42                	lw	s6,16(sp)

00000182 <.LVL231>:
 182:	4bb2                	lw	s7,12(sp)
 184:	4595                	li	a1,5
 186:	4519                	li	a0,6
 188:	6145                	addi	sp,sp,48
 18a:	00000317          	auipc	t1,0x0
 18e:	00030067          	jr	t1 # 18a <.LVL231+0x8>

00000192 <.L101>:
 192:	5422                	lw	s0,40(sp)
 194:	50b2                	lw	ra,44(sp)
 196:	5492                	lw	s1,36(sp)
 198:	5902                	lw	s2,32(sp)
 19a:	49f2                	lw	s3,28(sp)
 19c:	4a62                	lw	s4,24(sp)

0000019e <.LVL233>:
 19e:	4ad2                	lw	s5,20(sp)
 1a0:	4b42                	lw	s6,16(sp)

000001a2 <.LVL234>:
 1a2:	4bb2                	lw	s7,12(sp)
 1a4:	4505                	li	a0,1

000001a6 <.LVL236>:
 1a6:	6145                	addi	sp,sp,48
 1a8:	00000317          	auipc	t1,0x0
 1ac:	00030067          	jr	t1 # 1a8 <.LVL236+0x2>

Disassembly of section .text.sm_assoc_req_send:

00000000 <sm_assoc_req_send>:
   0:	7139                	addi	sp,sp,-64
   2:	ce5e                	sw	s7,28(sp)
   4:	00000bb7          	lui	s7,0x0
   8:	da26                	sw	s1,52(sp)
   a:	d452                	sw	s4,40(sp)
   c:	d256                	sw	s5,36(sp)
   e:	de06                	sw	ra,60(sp)
  10:	dc22                	sw	s0,56(sp)
  12:	d84a                	sw	s2,48(sp)
  14:	d64e                	sw	s3,44(sp)
  16:	d05a                	sw	s6,32(sp)
  18:	cc62                	sw	s8,24(sp)
  1a:	ca66                	sw	s9,20(sp)
  1c:	c86a                	sw	s10,16(sp)
  1e:	000b8b93          	mv	s7,s7
  22:	000bab03          	lw	s6,0(s7) # 0 <sm_assoc_req_send>

00000026 <.LVL238>:
  26:	5d800a13          	li	s4,1496
  2a:	00000ab7          	lui	s5,0x0
  2e:	03db4903          	lbu	s2,61(s6) # 3d <.LVL239+0xb>

00000032 <.LVL239>:
  32:	000a8493          	mv	s1,s5
  36:	10000593          	li	a1,256
  3a:	03490a33          	mul	s4,s2,s4
  3e:	94d2                	add	s1,s1,s4
  40:	3a44a783          	lw	a5,932(s1)
  44:	0604cc83          	lbu	s9,96(s1)
  48:	0027c503          	lbu	a0,2(a5) # 2 <sm_assoc_req_send+0x2>
  4c:	00a03533          	snez	a0,a0
  50:	00000097          	auipc	ra,0x0
  54:	000080e7          	jalr	ra # 50 <.LVL239+0x1e>

00000058 <.LVL241>:
  58:	16050363          	beqz	a0,1be <.L107>
  5c:	842a                	mv	s0,a0

0000005e <.LBB150>:
  5e:	85aa                	mv	a1,a0
  60:	8526                	mv	a0,s1

00000062 <.LVL242>:
  62:	004bac03          	lw	s8,4(s7)
  66:	00000097          	auipc	ra,0x0
  6a:	000080e7          	jalr	ra # 66 <.LVL242+0x4>

0000006e <.LVL243>:
  6e:	011bc783          	lbu	a5,17(s7)

00000072 <.LBB151>:
  72:	5424                	lw	s1,104(s0)
  74:	000a8a93          	mv	s5,s5

00000078 <.LBB156>:
  78:	4b81                	li	s7,0

0000007a <.LBB158>:
  7a:	14c48d13          	addi	s10,s1,332

0000007e <.LBE158>:
  7e:	c799                	beqz	a5,8c <.L108>
  80:	00000bb7          	lui	s7,0x0
  84:	02000793          	li	a5,32
  88:	018b8b93          	addi	s7,s7,24 # 18 <sm_assoc_req_send+0x18>

0000008c <.L108>:
  8c:	14f48623          	sb	a5,332(s1)
  90:	1b000793          	li	a5,432
  94:	02fc8cb3          	mul	s9,s9,a5
  98:	000009b7          	lui	s3,0x0
  9c:	00098993          	mv	s3,s3
  a0:	4619                	li	a2,6
  a2:	140486a3          	sb	zero,333(s1)

000000a6 <.LVL247>:
  a6:	14048723          	sb	zero,334(s1)
  aa:	140487a3          	sb	zero,335(s1)
  ae:	15048513          	addi	a0,s1,336
  b2:	99e6                	add	s3,s3,s9
  b4:	09f9                	addi	s3,s3,30
  b6:	85ce                	mv	a1,s3
  b8:	00000097          	auipc	ra,0x0
  bc:	000080e7          	jalr	ra # b8 <.LVL247+0x12>

000000c0 <.LVL248>:
  c0:	5d800793          	li	a5,1496
  c4:	02f90933          	mul	s2,s2,a5
  c8:	4619                	li	a2,6
  ca:	15648513          	addi	a0,s1,342
  ce:	9956                	add	s2,s2,s5
  d0:	05090593          	addi	a1,s2,80
  d4:	00000097          	auipc	ra,0x0
  d8:	000080e7          	jalr	ra # d4 <.LVL248+0x14>

000000dc <.LVL250>:
  dc:	4619                	li	a2,6
  de:	85ce                	mv	a1,s3
  e0:	15c48513          	addi	a0,s1,348
  e4:	00000097          	auipc	ra,0x0
  e8:	000080e7          	jalr	ra # e4 <.LVL250+0x8>

000000ec <.LVL251>:
  ec:	00000097          	auipc	ra,0x0
  f0:	000080e7          	jalr	ra # ec <.LVL251>

000000f4 <.LVL252>:
  f4:	16a48123          	sb	a0,354(s1)
  f8:	8121                	srli	a0,a0,0x8
  fa:	16a481a3          	sb	a0,355(s1)
  fe:	05794683          	lbu	a3,87(s2)

00000102 <.LBE178>:
 102:	358a0593          	addi	a1,s4,856

00000106 <.LBB179>:
 106:	00a10793          	addi	a5,sp,10
 10a:	0078                	addi	a4,sp,12
 10c:	885a                	mv	a6,s6
 10e:	865e                	mv	a2,s7
 110:	95d6                	add	a1,a1,s5
 112:	018d0513          	addi	a0,s10,24
 116:	00000097          	auipc	ra,0x0
 11a:	000080e7          	jalr	ra # 116 <.LBB179+0x10>

0000011e <.LVL253>:
 11e:	05794783          	lbu	a5,87(s2)
 122:	5478                	lw	a4,108(s0)

00000124 <.LBB159>:
 124:	46b2                	lw	a3,12(sp)

00000126 <.LBE159>:
 126:	02f407a3          	sb	a5,47(s0)
 12a:	06094783          	lbu	a5,96(s2)
 12e:	2c842823          	sw	s0,720(s0)

00000132 <.LBB165>:
 132:	418686b3          	sub	a3,a3,s8

00000136 <.LBE165>:
 136:	02f40823          	sb	a5,48(s0)
 13a:	000007b7          	lui	a5,0x0
 13e:	00078793          	mv	a5,a5
 142:	2cf42623          	sw	a5,716(s0)

00000146 <.LVL254>:
 146:	4b5c                	lw	a5,20(a4)
 148:	07dd                	addi	a5,a5,23
 14a:	97aa                	add	a5,a5,a0
 14c:	0571                	addi	a0,a0,28

0000014e <.LVL255>:
 14e:	cf1c                	sw	a5,24(a4)
 150:	cf48                	sw	a0,28(a4)

00000152 <.LBB174>:
 152:	00a15703          	lhu	a4,10(sp)

00000156 <.LVL257>:
 156:	87e2                	mv	a5,s8
 158:	9762                	add	a4,a4,s8

0000015a <.L109>:
 15a:	04e79a63          	bne	a5,a4,1ae <.L110>

0000015e <.LBE175>:
 15e:	00a15783          	lhu	a5,10(sp)
 162:	458d                	li	a1,3
 164:	8522                	mv	a0,s0

00000166 <.LVL260>:
 166:	00fc1723          	sh	a5,14(s8)
 16a:	00000097          	auipc	ra,0x0
 16e:	000080e7          	jalr	ra # 16a <.LVL260+0x4>

00000172 <.LVL261>:
 172:	6509                	lui	a0,0x2
 174:	4599                	li	a1,6
 176:	80650513          	addi	a0,a0,-2042 # 1806 <.LASF263>
 17a:	00032637          	lui	a2,0x32
 17e:	00000097          	auipc	ra,0x0
 182:	000080e7          	jalr	ra # 17e <.LVL261+0xc>

00000186 <.LVL262>:
 186:	4599                	li	a1,6
 188:	4519                	li	a0,6
 18a:	00000097          	auipc	ra,0x0
 18e:	000080e7          	jalr	ra # 18a <.LVL262+0x4>

00000192 <.L106>:
 192:	50f2                	lw	ra,60(sp)
 194:	5462                	lw	s0,56(sp)
 196:	54d2                	lw	s1,52(sp)
 198:	5942                	lw	s2,48(sp)
 19a:	59b2                	lw	s3,44(sp)
 19c:	5a22                	lw	s4,40(sp)
 19e:	5a92                	lw	s5,36(sp)
 1a0:	5b02                	lw	s6,32(sp)

000001a2 <.LVL264>:
 1a2:	4bf2                	lw	s7,28(sp)
 1a4:	4c62                	lw	s8,24(sp)
 1a6:	4cd2                	lw	s9,20(sp)
 1a8:	4d42                	lw	s10,16(sp)
 1aa:	6121                	addi	sp,sp,64
 1ac:	8082                	ret

000001ae <.L110>:
 1ae:	00f68633          	add	a2,a3,a5
 1b2:	00064603          	lbu	a2,0(a2) # 32000 <.LASF410+0x2c80e>

000001b6 <.LBB167>:
 1b6:	0785                	addi	a5,a5,1

000001b8 <.LVL267>:
 1b8:	00c789a3          	sb	a2,19(a5) # 13 <sm_assoc_req_send+0x13>
 1bc:	bf79                	j	15a <.L109>

000001be <.L107>:
 1be:	4511                	li	a0,4

000001c0 <.LVL269>:
 1c0:	00000097          	auipc	ra,0x0
 1c4:	000080e7          	jalr	ra # 1c0 <.LVL269>

000001c8 <.LVL270>:
 1c8:	b7e9                	j	192 <.L106>

Disassembly of section .text.sm_assoc_done:

00000000 <sm_assoc_done>:
   0:	1141                	addi	sp,sp,-16
   2:	c226                	sw	s1,4(sp)
   4:	000007b7          	lui	a5,0x0
   8:	84aa                	mv	s1,a0
   a:	4581                	li	a1,0
   c:	4691                	li	a3,4
   e:	4619                	li	a2,6
  10:	4579                	li	a0,30

00000012 <.LVL272>:
  12:	c606                	sw	ra,12(sp)
  14:	c422                	sw	s0,8(sp)
  16:	0007a403          	lw	s0,0(a5) # 0 <sm_assoc_done>

0000001a <.LVL273>:
  1a:	00000097          	auipc	ra,0x0
  1e:	000080e7          	jalr	ra # 1a <.LVL273>

00000022 <.LVL274>:
  22:	4705                	li	a4,1
  24:	00951023          	sh	s1,0(a0)
  28:	00e50123          	sb	a4,2(a0)
  2c:	03d44703          	lbu	a4,61(s0)
  30:	00e501a3          	sb	a4,3(a0)
  34:	00000097          	auipc	ra,0x0
  38:	000080e7          	jalr	ra # 34 <.LVL274+0x12>

0000003c <.LVL275>:
  3c:	4422                	lw	s0,8(sp)

0000003e <.LVL276>:
  3e:	40b2                	lw	ra,12(sp)
  40:	4492                	lw	s1,4(sp)
  42:	459d                	li	a1,7
  44:	4519                	li	a0,6
  46:	0141                	addi	sp,sp,16
  48:	00000317          	auipc	t1,0x0
  4c:	00030067          	jr	t1 # 48 <.LVL276+0xa>

Disassembly of section .text.sm_auth_handler:

00000000 <sm_auth_handler>:
   0:	1141                	addi	sp,sp,-16
   2:	c226                	sw	s1,4(sp)
   4:	c422                	sw	s0,8(sp)
   6:	01c50493          	addi	s1,a0,28

0000000a <.LVL279>:
   a:	842a                	mv	s0,a0
   c:	6509                	lui	a0,0x2

0000000e <.LVL280>:
   e:	4599                	li	a1,6
  10:	80650513          	addi	a0,a0,-2042 # 1806 <.LASF263>
  14:	c606                	sw	ra,12(sp)
  16:	00000097          	auipc	ra,0x0
  1a:	000080e7          	jalr	ra # 16 <.LVL280+0x8>

0000001e <.LBB181>:
  1e:	0054c583          	lbu	a1,5(s1)
  22:	0044c783          	lbu	a5,4(s1)
  26:	05a2                	slli	a1,a1,0x8
  28:	8ddd                	or	a1,a1,a5

0000002a <.LBE181>:
  2a:	e1dd                	bnez	a1,d0 <.L117>

0000002c <.LBB183>:
  2c:	01d44783          	lbu	a5,29(s0)
  30:	01c44703          	lbu	a4,28(s0)
  34:	07a2                	slli	a5,a5,0x8
  36:	8fd9                	or	a5,a5,a4

00000038 <.LBE183>:
  38:	eb89                	bnez	a5,4a <.L118>

0000003a <.L120>:
  3a:	4422                	lw	s0,8(sp)

0000003c <.LVL286>:
  3c:	40b2                	lw	ra,12(sp)
  3e:	4492                	lw	s1,4(sp)

00000040 <.LVL287>:
  40:	0141                	addi	sp,sp,16
  42:	00000317          	auipc	t1,0x0
  46:	00030067          	jr	t1 # 42 <.LVL287+0x2>

0000004a <.L118>:
  4a:	4705                	li	a4,1
  4c:	0ce79463          	bne	a5,a4,114 <.L116>

00000050 <.LBB185>:
  50:	0034c783          	lbu	a5,3(s1)

00000054 <.LVL290>:
  54:	0024c703          	lbu	a4,2(s1)
  58:	07a2                	slli	a5,a5,0x8
  5a:	8fd9                	or	a5,a5,a4

0000005c <.LBE185>:
  5c:	4711                	li	a4,4
  5e:	fce78ee3          	beq	a5,a4,3a <.L120>
  62:	4709                	li	a4,2
  64:	02e79f63          	bne	a5,a4,a2 <.L121>
  68:	00045583          	lhu	a1,0(s0)

0000006c <.LVL292>:
  6c:	08700793          	li	a5,135

00000070 <.LVL293>:
  70:	00b7fd63          	bgeu	a5,a1,8a <.L122>
  74:	02440593          	addi	a1,s0,36
  78:	450d                	li	a0,3

0000007a <.L128>:
  7a:	4422                	lw	s0,8(sp)

0000007c <.LVL295>:
  7c:	40b2                	lw	ra,12(sp)
  7e:	4492                	lw	s1,4(sp)

00000080 <.LVL296>:
  80:	0141                	addi	sp,sp,16
  82:	00000317          	auipc	t1,0x0
  86:	00030067          	jr	t1 # 82 <.LVL296+0x2>

0000008a <.L122>:
  8a:	4422                	lw	s0,8(sp)

0000008c <.LVL298>:
  8c:	40b2                	lw	ra,12(sp)
  8e:	4492                	lw	s1,4(sp)

00000090 <.LVL299>:
  90:	00000537          	lui	a0,0x0
  94:	00050513          	mv	a0,a0
  98:	0141                	addi	sp,sp,16
  9a:	00000317          	auipc	t1,0x0
  9e:	00030067          	jr	t1 # 9a <.LVL299+0xa>

000000a2 <.L121>:
  a2:	450d                	li	a0,3
  a4:	00000097          	auipc	ra,0x0
  a8:	000080e7          	jalr	ra # a4 <.L121+0x2>

000000ac <.LVL301>:
  ac:	4422                	lw	s0,8(sp)

000000ae <.LVL302>:
  ae:	40b2                	lw	ra,12(sp)
  b0:	4492                	lw	s1,4(sp)

000000b2 <.LVL303>:
  b2:	000005b7          	lui	a1,0x0
  b6:	00000537          	lui	a0,0x0
  ba:	37400613          	li	a2,884
  be:	00058593          	mv	a1,a1
  c2:	00050513          	mv	a0,a0
  c6:	0141                	addi	sp,sp,16
  c8:	00000317          	auipc	t1,0x0
  cc:	00030067          	jr	t1 # c8 <.LVL303+0x16>

000000d0 <.L117>:
  d0:	000007b7          	lui	a5,0x0
  d4:	0007a783          	lw	a5,0(a5) # 0 <sm_auth_handler>
  d8:	4705                	li	a4,1
  da:	03b7c683          	lbu	a3,59(a5)
  de:	00e69a63          	bne	a3,a4,f2 <.L123>
  e2:	1407c703          	lbu	a4,320(a5)
  e6:	c711                	beqz	a4,f2 <.L123>
  e8:	02078da3          	sb	zero,59(a5)
  ec:	4581                	li	a1,0

000000ee <.LVL305>:
  ee:	4505                	li	a0,1
  f0:	b769                	j	7a <.L128>

000000f2 <.L123>:
  f2:	00000537          	lui	a0,0x0
  f6:	00050513          	mv	a0,a0
  fa:	00000097          	auipc	ra,0x0
  fe:	000080e7          	jalr	ra # fa <.L123+0x8>

00000102 <.LVL307>:
 102:	4422                	lw	s0,8(sp)

00000104 <.LVL308>:
 104:	40b2                	lw	ra,12(sp)
 106:	4492                	lw	s1,4(sp)

00000108 <.LVL309>:
 108:	4509                	li	a0,2
 10a:	0141                	addi	sp,sp,16
 10c:	00000317          	auipc	t1,0x0
 110:	00030067          	jr	t1 # 10c <.LVL309+0x4>

00000114 <.L116>:
 114:	40b2                	lw	ra,12(sp)
 116:	4422                	lw	s0,8(sp)

00000118 <.LVL311>:
 118:	4492                	lw	s1,4(sp)

0000011a <.LVL312>:
 11a:	0141                	addi	sp,sp,16
 11c:	8082                	ret

Disassembly of section .text.sm_assoc_rsp_handler:

00000000 <sm_assoc_rsp_handler>:
   0:	7139                	addi	sp,sp,-64
   2:	000007b7          	lui	a5,0x0
   6:	d84a                	sw	s2,48(sp)
   8:	dc22                	sw	s0,56(sp)
   a:	da26                	sw	s1,52(sp)
   c:	d256                	sw	s5,36(sp)
   e:	de06                	sw	ra,60(sp)
  10:	d64e                	sw	s3,44(sp)
  12:	d452                	sw	s4,40(sp)
  14:	d05a                	sw	s6,32(sp)
  16:	ce5e                	sw	s7,28(sp)
  18:	00078793          	mv	a5,a5
  1c:	0047ab03          	lw	s6,4(a5) # 4 <sm_assoc_rsp_handler+0x4>
  20:	439c                	lw	a5,0(a5)
  22:	5d800713          	li	a4,1496
  26:	000004b7          	lui	s1,0x0
  2a:	03d7cb83          	lbu	s7,61(a5)
  2e:	01c50913          	addi	s2,a0,28 # 1c <sm_assoc_rsp_handler+0x1c>

00000032 <.LVL314>:
  32:	8aaa                	mv	s5,a0
  34:	02eb8733          	mul	a4,s7,a4
  38:	00048793          	mv	a5,s1

0000003c <.LVL315>:
  3c:	6509                	lui	a0,0x2

0000003e <.LVL316>:
  3e:	4599                	li	a1,6
  40:	80650513          	addi	a0,a0,-2042 # 1806 <.LASF263>
  44:	00010723          	sb	zero,14(sp)
  48:	97ba                	add	a5,a5,a4
  4a:	0607ca03          	lbu	s4,96(a5)

0000004e <.LVL317>:
  4e:	00000097          	auipc	ra,0x0
  52:	000080e7          	jalr	ra # 4e <.LVL317>

00000056 <.LBB197>:
  56:	00394403          	lbu	s0,3(s2)
  5a:	00294783          	lbu	a5,2(s2)
  5e:	0422                	slli	s0,s0,0x8
  60:	8c5d                	or	s0,s0,a5

00000062 <.LBE197>:
  62:	e875                	bnez	s0,156 <.L130>
  64:	000ad703          	lhu	a4,0(s5) # 0 <sm_assoc_rsp_handler>
  68:	4795                	li	a5,5
  6a:	00048493          	mv	s1,s1
  6e:	00e7f663          	bgeu	a5,a4,7a <.L131>
  72:	ffa70413          	addi	s0,a4,-6

00000076 <.LVL320>:
  76:	0442                	slli	s0,s0,0x10
  78:	8041                	srli	s0,s0,0x10

0000007a <.L131>:
  7a:	00594503          	lbu	a0,5(s2)
  7e:	00494783          	lbu	a5,4(s2)
  82:	5d800593          	li	a1,1496
  86:	0522                	slli	a0,a0,0x8
  88:	8d5d                	or	a0,a0,a5

0000008a <.LBE199>:
  8a:	054a                	slli	a0,a0,0x12
  8c:	8149                	srli	a0,a0,0x12
  8e:	02bb89b3          	mul	s3,s7,a1

00000092 <.LBB202>:
  92:	00000097          	auipc	ra,0x0
  96:	000080e7          	jalr	ra # 92 <.LBB202>

0000009a <.LVL323>:
  9a:	1b000713          	li	a4,432
  9e:	00000537          	lui	a0,0x0
  a2:	00050513          	mv	a0,a0
  a6:	02ea0733          	mul	a4,s4,a4
  aa:	953a                	add	a0,a0,a4
  ac:	00000097          	auipc	ra,0x0
  b0:	000080e7          	jalr	ra # ac <.LVL323+0x12>

000000b4 <.LVL324>:
  b4:	01348533          	add	a0,s1,s3
  b8:	3a452783          	lw	a5,932(a0) # 3a4 <.LLST113+0x3>
  bc:	00e10613          	addi	a2,sp,14
  c0:	00f10593          	addi	a1,sp,15
  c4:	0047c703          	lbu	a4,4(a5)
  c8:	3dc54783          	lbu	a5,988(a0)
  cc:	8f1d                	sub	a4,a4,a5
  ce:	00e107a3          	sb	a4,15(sp)
  d2:	00000097          	auipc	ra,0x0
  d6:	000080e7          	jalr	ra # d2 <.LVL324+0x1e>

000000da <.LVL325>:
  da:	00eb5683          	lhu	a3,14(s6)
  de:	014b0793          	addi	a5,s6,20
  e2:	4701                	li	a4,0
  e4:	96be                	add	a3,a3,a5

000000e6 <.L132>:
  e6:	04e41e63          	bne	s0,a4,142 <.L133>

000000ea <.LBE203>:
  ea:	5d800793          	li	a5,1496
  ee:	02fb87b3          	mul	a5,s7,a5
  f2:	008b1823          	sh	s0,16(s6)
  f6:	66cd                	lui	a3,0x13
  f8:	a0068693          	addi	a3,a3,-1536 # 12a00 <.LASF410+0xd20e>
  fc:	97a6                	add	a5,a5,s1
  fe:	3e87a703          	lw	a4,1000(a5)
 102:	8f75                	and	a4,a4,a3
 104:	c705                	beqz	a4,12c <.L129>
 106:	37e7c603          	lbu	a2,894(a5)
 10a:	05098713          	addi	a4,s3,80 # 50 <.LVL317+0x2>
 10e:	37898693          	addi	a3,s3,888
 112:	37f98593          	addi	a1,s3,895
 116:	00000537          	lui	a0,0x0
 11a:	9726                	add	a4,a4,s1
 11c:	96a6                	add	a3,a3,s1
 11e:	95a6                	add	a1,a1,s1
 120:	00050513          	mv	a0,a0
 124:	00000097          	auipc	ra,0x0
 128:	000080e7          	jalr	ra # 124 <.LBE203+0x3a>

0000012c <.L129>:
 12c:	50f2                	lw	ra,60(sp)
 12e:	5462                	lw	s0,56(sp)
 130:	54d2                	lw	s1,52(sp)
 132:	5942                	lw	s2,48(sp)

00000134 <.LVL329>:
 134:	59b2                	lw	s3,44(sp)
 136:	5a22                	lw	s4,40(sp)
 138:	5a92                	lw	s5,36(sp)

0000013a <.LVL331>:
 13a:	5b02                	lw	s6,32(sp)

0000013c <.LVL332>:
 13c:	4bf2                	lw	s7,28(sp)
 13e:	6121                	addi	sp,sp,64
 140:	8082                	ret

00000142 <.L133>:
 142:	00ea87b3          	add	a5,s5,a4
 146:	0227c603          	lbu	a2,34(a5)

0000014a <.LBB207>:
 14a:	00e687b3          	add	a5,a3,a4
 14e:	0705                	addi	a4,a4,1

00000150 <.LVL336>:
 150:	00c78023          	sb	a2,0(a5)
 154:	bf49                	j	e6 <.L132>

00000156 <.L130>:
 156:	00000537          	lui	a0,0x0
 15a:	85a2                	mv	a1,s0
 15c:	00050513          	mv	a0,a0
 160:	00000097          	auipc	ra,0x0
 164:	000080e7          	jalr	ra # 160 <.L130+0xa>

00000168 <.LVL338>:
 168:	4515                	li	a0,5
 16a:	00000097          	auipc	ra,0x0
 16e:	000080e7          	jalr	ra # 16a <.LVL338+0x2>

00000172 <.LVL339>:
 172:	bf6d                	j	12c <.L129>

Disassembly of section .text.sm_deauth_handler:

00000000 <sm_deauth_handler>:
   0:	1101                	addi	sp,sp,-32
   2:	cc22                	sw	s0,24(sp)
   4:	c84a                	sw	s2,16(sp)
   6:	ce06                	sw	ra,28(sp)
   8:	ca26                	sw	s1,20(sp)
   a:	c64e                	sw	s3,12(sp)
   c:	000007b7          	lui	a5,0x0
  10:	00854483          	lbu	s1,8(a0) # 8 <sm_deauth_handler+0x8>
  14:	892a                	mv	s2,a0
  16:	4519                	li	a0,6

00000018 <.LVL341>:
  18:	0007a403          	lw	s0,0(a5) # 0 <sm_deauth_handler>

0000001c <.LVL342>:
  1c:	00000097          	auipc	ra,0x0
  20:	000080e7          	jalr	ra # 1c <.LVL342>

00000024 <.LVL343>:
  24:	47a1                	li	a5,8
  26:	00f51b63          	bne	a0,a5,3c <.L140>

0000002a <.L143>:
  2a:	4989                	li	s3,2

0000002c <.L139>:
  2c:	40f2                	lw	ra,28(sp)
  2e:	4462                	lw	s0,24(sp)
  30:	854e                	mv	a0,s3
  32:	44d2                	lw	s1,20(sp)
  34:	4942                	lw	s2,16(sp)

00000036 <.LVL345>:
  36:	49b2                	lw	s3,12(sp)
  38:	6105                	addi	sp,sp,32
  3a:	8082                	ret

0000003c <.L140>:
  3c:	4519                	li	a0,6
  3e:	00000097          	auipc	ra,0x0
  42:	000080e7          	jalr	ra # 3e <.L140+0x2>

00000046 <.LVL347>:
  46:	cd11                	beqz	a0,62 <.L142>
  48:	03d44703          	lbu	a4,61(s0)
  4c:	00894783          	lbu	a5,8(s2)
  50:	fcf71de3          	bne	a4,a5,2a <.L143>

00000054 <.LVL348>:
  54:	4519                	li	a0,6
  56:	00000097          	auipc	ra,0x0
  5a:	000080e7          	jalr	ra # 56 <.LVL348+0x2>

0000005e <.LVL349>:
  5e:	4981                	li	s3,0
  60:	b7f1                	j	2c <.L139>

00000062 <.L142>:
  62:	5d800793          	li	a5,1496
  66:	02f484b3          	mul	s1,s1,a5
  6a:	00000437          	lui	s0,0x0

0000006e <.LVL352>:
  6e:	00040413          	mv	s0,s0
  72:	4981                	li	s3,0
  74:	9426                	add	s0,s0,s1
  76:	05844783          	lbu	a5,88(s0) # 58 <.LVL348+0x4>
  7a:	dbcd                	beqz	a5,2c <.L139>

0000007c <.LBB216>:
  7c:	01d94483          	lbu	s1,29(s2)
  80:	01c94783          	lbu	a5,28(s2)

00000084 <.LBE216>:
  84:	45a1                	li	a1,8
  86:	4519                	li	a0,6

00000088 <.LBB217>:
  88:	04a2                	slli	s1,s1,0x8
  8a:	8cdd                	or	s1,s1,a5

0000008c <.LBE217>:
  8c:	00000097          	auipc	ra,0x0
  90:	000080e7          	jalr	ra # 8c <.LBE217>

00000094 <.LVL353>:
  94:	00000537          	lui	a0,0x0
  98:	85a6                	mv	a1,s1
  9a:	00050513          	mv	a0,a0
  9e:	00000097          	auipc	ra,0x0
  a2:	000080e7          	jalr	ra # 9e <.LVL353+0xa>

000000a6 <.LVL354>:
  a6:	85a6                	mv	a1,s1
  a8:	8522                	mv	a0,s0
  aa:	00000097          	auipc	ra,0x0
  ae:	000080e7          	jalr	ra # aa <.LVL354+0x4>

000000b2 <.LVL355>:
  b2:	bfad                	j	2c <.L139>

Disassembly of section .text.sm_handle_supplicant_result:

00000000 <sm_handle_supplicant_result>:
   0:	1b000713          	li	a4,432
   4:	02e50733          	mul	a4,a0,a4

00000008 <.LBE218>:
   8:	1101                	addi	sp,sp,-32
   a:	c64e                	sw	s3,12(sp)

0000000c <.LBB222>:
   c:	000009b7          	lui	s3,0x0
  10:	00098793          	mv	a5,s3

00000014 <.LBE222>:
  14:	ce06                	sw	ra,28(sp)
  16:	cc22                	sw	s0,24(sp)
  18:	ca26                	sw	s1,20(sp)
  1a:	c84a                	sw	s2,16(sp)
  1c:	c452                	sw	s4,8(sp)
  1e:	c256                	sw	s5,4(sp)
  20:	c05a                	sw	s6,0(sp)

00000022 <.LBB223>:
  22:	97ba                	add	a5,a5,a4
  24:	01a7cb03          	lbu	s6,26(a5)

00000028 <.LBE223>:
  28:	e195                	bnez	a1,4c <.L148>
  2a:	4709                	li	a4,2
  2c:	02e788a3          	sb	a4,49(a5)
  30:	4501                	li	a0,0

00000032 <.L153>:
  32:	4462                	lw	s0,24(sp)
  34:	40f2                	lw	ra,28(sp)
  36:	44d2                	lw	s1,20(sp)
  38:	4942                	lw	s2,16(sp)
  3a:	49b2                	lw	s3,12(sp)
  3c:	4a22                	lw	s4,8(sp)
  3e:	4a92                	lw	s5,4(sp)
  40:	4b02                	lw	s6,0(sp)

00000042 <.LVL359>:
  42:	6105                	addi	sp,sp,32
  44:	00000317          	auipc	t1,0x0
  48:	00030067          	jr	t1 # 44 <.LVL359+0x2>

0000004c <.L148>:
  4c:	47bd                	li	a5,15
  4e:	8a2e                	mv	s4,a1
  50:	00098993          	mv	s3,s3
  54:	8aaa                	mv	s5,a0
  56:	00f59a63          	bne	a1,a5,6a <.L149>
  5a:	00000537          	lui	a0,0x0

0000005e <.LVL361>:
  5e:	00050513          	mv	a0,a0
  62:	00000097          	auipc	ra,0x0
  66:	000080e7          	jalr	ra # 62 <.LVL361+0x4>

0000006a <.L149>:
  6a:	5d800793          	li	a5,1496
  6e:	02fb07b3          	mul	a5,s6,a5
  72:	00000937          	lui	s2,0x0
  76:	00090913          	mv	s2,s2
  7a:	10000593          	li	a1,256
  7e:	993e                	add	s2,s2,a5
  80:	3a492783          	lw	a5,932(s2) # 3a4 <.LLST113+0x3>
  84:	0027c503          	lbu	a0,2(a5)
  88:	00a03533          	snez	a0,a0
  8c:	00000097          	auipc	ra,0x0
  90:	000080e7          	jalr	ra # 8c <.L149+0x22>

00000094 <.LVL363>:
  94:	84aa                	mv	s1,a0

00000096 <.LVL364>:
  96:	cd4d                	beqz	a0,150 <.L150>
  98:	85aa                	mv	a1,a0
  9a:	854a                	mv	a0,s2
  9c:	00000097          	auipc	ra,0x0
  a0:	000080e7          	jalr	ra # 9c <.LVL364+0x6>

000000a4 <.LBB224>:
  a4:	54a0                	lw	s0,104(s1)

000000a6 <.LBB227>:
  a6:	fc000793          	li	a5,-64
  aa:	4619                	li	a2,6
  ac:	14f40623          	sb	a5,332(s0)
  b0:	1b000793          	li	a5,432
  b4:	02fa87b3          	mul	a5,s5,a5
  b8:	140406a3          	sb	zero,333(s0)
  bc:	14040723          	sb	zero,334(s0)
  c0:	140407a3          	sb	zero,335(s0)
  c4:	15040513          	addi	a0,s0,336
  c8:	99be                	add	s3,s3,a5
  ca:	09f9                	addi	s3,s3,30
  cc:	85ce                	mv	a1,s3
  ce:	00000097          	auipc	ra,0x0
  d2:	000080e7          	jalr	ra # ce <.LBB227+0x28>

000000d6 <.LVL367>:
  d6:	4619                	li	a2,6
  d8:	05090593          	addi	a1,s2,80
  dc:	15640513          	addi	a0,s0,342
  e0:	00000097          	auipc	ra,0x0
  e4:	000080e7          	jalr	ra # e0 <.LVL367+0xa>

000000e8 <.LVL368>:
  e8:	4619                	li	a2,6
  ea:	85ce                	mv	a1,s3
  ec:	15c40513          	addi	a0,s0,348
  f0:	00000097          	auipc	ra,0x0
  f4:	000080e7          	jalr	ra # f0 <.LVL368+0x8>

000000f8 <.LVL369>:
  f8:	00000097          	auipc	ra,0x0
  fc:	000080e7          	jalr	ra # f8 <.LVL369>

00000100 <.LVL370>:
 100:	16a40123          	sb	a0,354(s0)
 104:	000007b7          	lui	a5,0x0
 108:	8121                	srli	a0,a0,0x8
 10a:	16a401a3          	sb	a0,355(s0)
 10e:	00078793          	mv	a5,a5
 112:	2cf4a623          	sw	a5,716(s1) # 2cc <.LASF926+0x5>
 116:	85d2                	mv	a1,s4
 118:	2d24a823          	sw	s2,720(s1)
 11c:	036487a3          	sb	s6,47(s1)
 120:	03548823          	sb	s5,48(s1)

00000124 <.LVL371>:
 124:	16440513          	addi	a0,s0,356
 128:	00000097          	auipc	ra,0x0
 12c:	000080e7          	jalr	ra # 128 <.LVL371+0x4>

00000130 <.LVL372>:
 130:	54f8                	lw	a4,108(s1)

00000132 <.LVL373>:
 132:	458d                	li	a1,3
 134:	4b5c                	lw	a5,20(a4)
 136:	07dd                	addi	a5,a5,23
 138:	97aa                	add	a5,a5,a0
 13a:	0571                	addi	a0,a0,28

0000013c <.LVL374>:
 13c:	cf48                	sw	a0,28(a4)
 13e:	cf1c                	sw	a5,24(a4)
 140:	8526                	mv	a0,s1

00000142 <.LVL375>:
 142:	00000097          	auipc	ra,0x0
 146:	000080e7          	jalr	ra # 142 <.LVL375>

0000014a <.LVL376>:
 14a:	e509                	bnez	a0,154 <.L147>
 14c:	4525                	li	a0,9
 14e:	b5d5                	j	32 <.L153>

00000150 <.L150>:
 150:	4529                	li	a0,10
 152:	b5c5                	j	32 <.L153>

00000154 <.L147>:
 154:	40f2                	lw	ra,28(sp)
 156:	4462                	lw	s0,24(sp)

00000158 <.LVL379>:
 158:	44d2                	lw	s1,20(sp)

0000015a <.LVL380>:
 15a:	4942                	lw	s2,16(sp)
 15c:	49b2                	lw	s3,12(sp)
 15e:	4a22                	lw	s4,8(sp)
 160:	4a92                	lw	s5,4(sp)
 162:	4b02                	lw	s6,0(sp)

00000164 <.LVL382>:
 164:	6105                	addi	sp,sp,32
 166:	8082                	ret
